
pmbench:     file format elf64-x86-64


Disassembly of section .init:

0000000000003000 <_init>:
    3000:	f3 0f 1e fa          	endbr64 
    3004:	48 83 ec 08          	sub    $0x8,%rsp
    3008:	48 8b 05 e1 cf 00 00 	mov    0xcfe1(%rip),%rax        # fff0 <__gmon_start__>
    300f:	48 85 c0             	test   %rax,%rax
    3012:	74 02                	je     3016 <_init+0x16>
    3014:	ff d0                	callq  *%rax
    3016:	48 83 c4 08          	add    $0x8,%rsp
    301a:	c3                   	retq   

Disassembly of section .plt:

0000000000003020 <.plt>:
    3020:	ff 35 aa cd 00 00    	pushq  0xcdaa(%rip)        # fdd0 <_GLOBAL_OFFSET_TABLE_+0x8>
    3026:	f2 ff 25 ab cd 00 00 	bnd jmpq *0xcdab(%rip)        # fdd8 <_GLOBAL_OFFSET_TABLE_+0x10>
    302d:	0f 1f 00             	nopl   (%rax)
    3030:	f3 0f 1e fa          	endbr64 
    3034:	68 00 00 00 00       	pushq  $0x0
    3039:	f2 e9 e1 ff ff ff    	bnd jmpq 3020 <.plt>
    303f:	90                   	nop
    3040:	f3 0f 1e fa          	endbr64 
    3044:	68 01 00 00 00       	pushq  $0x1
    3049:	f2 e9 d1 ff ff ff    	bnd jmpq 3020 <.plt>
    304f:	90                   	nop
    3050:	f3 0f 1e fa          	endbr64 
    3054:	68 02 00 00 00       	pushq  $0x2
    3059:	f2 e9 c1 ff ff ff    	bnd jmpq 3020 <.plt>
    305f:	90                   	nop
    3060:	f3 0f 1e fa          	endbr64 
    3064:	68 03 00 00 00       	pushq  $0x3
    3069:	f2 e9 b1 ff ff ff    	bnd jmpq 3020 <.plt>
    306f:	90                   	nop
    3070:	f3 0f 1e fa          	endbr64 
    3074:	68 04 00 00 00       	pushq  $0x4
    3079:	f2 e9 a1 ff ff ff    	bnd jmpq 3020 <.plt>
    307f:	90                   	nop
    3080:	f3 0f 1e fa          	endbr64 
    3084:	68 05 00 00 00       	pushq  $0x5
    3089:	f2 e9 91 ff ff ff    	bnd jmpq 3020 <.plt>
    308f:	90                   	nop
    3090:	f3 0f 1e fa          	endbr64 
    3094:	68 06 00 00 00       	pushq  $0x6
    3099:	f2 e9 81 ff ff ff    	bnd jmpq 3020 <.plt>
    309f:	90                   	nop
    30a0:	f3 0f 1e fa          	endbr64 
    30a4:	68 07 00 00 00       	pushq  $0x7
    30a9:	f2 e9 71 ff ff ff    	bnd jmpq 3020 <.plt>
    30af:	90                   	nop
    30b0:	f3 0f 1e fa          	endbr64 
    30b4:	68 08 00 00 00       	pushq  $0x8
    30b9:	f2 e9 61 ff ff ff    	bnd jmpq 3020 <.plt>
    30bf:	90                   	nop
    30c0:	f3 0f 1e fa          	endbr64 
    30c4:	68 09 00 00 00       	pushq  $0x9
    30c9:	f2 e9 51 ff ff ff    	bnd jmpq 3020 <.plt>
    30cf:	90                   	nop
    30d0:	f3 0f 1e fa          	endbr64 
    30d4:	68 0a 00 00 00       	pushq  $0xa
    30d9:	f2 e9 41 ff ff ff    	bnd jmpq 3020 <.plt>
    30df:	90                   	nop
    30e0:	f3 0f 1e fa          	endbr64 
    30e4:	68 0b 00 00 00       	pushq  $0xb
    30e9:	f2 e9 31 ff ff ff    	bnd jmpq 3020 <.plt>
    30ef:	90                   	nop
    30f0:	f3 0f 1e fa          	endbr64 
    30f4:	68 0c 00 00 00       	pushq  $0xc
    30f9:	f2 e9 21 ff ff ff    	bnd jmpq 3020 <.plt>
    30ff:	90                   	nop
    3100:	f3 0f 1e fa          	endbr64 
    3104:	68 0d 00 00 00       	pushq  $0xd
    3109:	f2 e9 11 ff ff ff    	bnd jmpq 3020 <.plt>
    310f:	90                   	nop
    3110:	f3 0f 1e fa          	endbr64 
    3114:	68 0e 00 00 00       	pushq  $0xe
    3119:	f2 e9 01 ff ff ff    	bnd jmpq 3020 <.plt>
    311f:	90                   	nop
    3120:	f3 0f 1e fa          	endbr64 
    3124:	68 0f 00 00 00       	pushq  $0xf
    3129:	f2 e9 f1 fe ff ff    	bnd jmpq 3020 <.plt>
    312f:	90                   	nop
    3130:	f3 0f 1e fa          	endbr64 
    3134:	68 10 00 00 00       	pushq  $0x10
    3139:	f2 e9 e1 fe ff ff    	bnd jmpq 3020 <.plt>
    313f:	90                   	nop
    3140:	f3 0f 1e fa          	endbr64 
    3144:	68 11 00 00 00       	pushq  $0x11
    3149:	f2 e9 d1 fe ff ff    	bnd jmpq 3020 <.plt>
    314f:	90                   	nop
    3150:	f3 0f 1e fa          	endbr64 
    3154:	68 12 00 00 00       	pushq  $0x12
    3159:	f2 e9 c1 fe ff ff    	bnd jmpq 3020 <.plt>
    315f:	90                   	nop
    3160:	f3 0f 1e fa          	endbr64 
    3164:	68 13 00 00 00       	pushq  $0x13
    3169:	f2 e9 b1 fe ff ff    	bnd jmpq 3020 <.plt>
    316f:	90                   	nop
    3170:	f3 0f 1e fa          	endbr64 
    3174:	68 14 00 00 00       	pushq  $0x14
    3179:	f2 e9 a1 fe ff ff    	bnd jmpq 3020 <.plt>
    317f:	90                   	nop
    3180:	f3 0f 1e fa          	endbr64 
    3184:	68 15 00 00 00       	pushq  $0x15
    3189:	f2 e9 91 fe ff ff    	bnd jmpq 3020 <.plt>
    318f:	90                   	nop
    3190:	f3 0f 1e fa          	endbr64 
    3194:	68 16 00 00 00       	pushq  $0x16
    3199:	f2 e9 81 fe ff ff    	bnd jmpq 3020 <.plt>
    319f:	90                   	nop
    31a0:	f3 0f 1e fa          	endbr64 
    31a4:	68 17 00 00 00       	pushq  $0x17
    31a9:	f2 e9 71 fe ff ff    	bnd jmpq 3020 <.plt>
    31af:	90                   	nop
    31b0:	f3 0f 1e fa          	endbr64 
    31b4:	68 18 00 00 00       	pushq  $0x18
    31b9:	f2 e9 61 fe ff ff    	bnd jmpq 3020 <.plt>
    31bf:	90                   	nop
    31c0:	f3 0f 1e fa          	endbr64 
    31c4:	68 19 00 00 00       	pushq  $0x19
    31c9:	f2 e9 51 fe ff ff    	bnd jmpq 3020 <.plt>
    31cf:	90                   	nop
    31d0:	f3 0f 1e fa          	endbr64 
    31d4:	68 1a 00 00 00       	pushq  $0x1a
    31d9:	f2 e9 41 fe ff ff    	bnd jmpq 3020 <.plt>
    31df:	90                   	nop
    31e0:	f3 0f 1e fa          	endbr64 
    31e4:	68 1b 00 00 00       	pushq  $0x1b
    31e9:	f2 e9 31 fe ff ff    	bnd jmpq 3020 <.plt>
    31ef:	90                   	nop
    31f0:	f3 0f 1e fa          	endbr64 
    31f4:	68 1c 00 00 00       	pushq  $0x1c
    31f9:	f2 e9 21 fe ff ff    	bnd jmpq 3020 <.plt>
    31ff:	90                   	nop
    3200:	f3 0f 1e fa          	endbr64 
    3204:	68 1d 00 00 00       	pushq  $0x1d
    3209:	f2 e9 11 fe ff ff    	bnd jmpq 3020 <.plt>
    320f:	90                   	nop
    3210:	f3 0f 1e fa          	endbr64 
    3214:	68 1e 00 00 00       	pushq  $0x1e
    3219:	f2 e9 01 fe ff ff    	bnd jmpq 3020 <.plt>
    321f:	90                   	nop
    3220:	f3 0f 1e fa          	endbr64 
    3224:	68 1f 00 00 00       	pushq  $0x1f
    3229:	f2 e9 f1 fd ff ff    	bnd jmpq 3020 <.plt>
    322f:	90                   	nop
    3230:	f3 0f 1e fa          	endbr64 
    3234:	68 20 00 00 00       	pushq  $0x20
    3239:	f2 e9 e1 fd ff ff    	bnd jmpq 3020 <.plt>
    323f:	90                   	nop
    3240:	f3 0f 1e fa          	endbr64 
    3244:	68 21 00 00 00       	pushq  $0x21
    3249:	f2 e9 d1 fd ff ff    	bnd jmpq 3020 <.plt>
    324f:	90                   	nop
    3250:	f3 0f 1e fa          	endbr64 
    3254:	68 22 00 00 00       	pushq  $0x22
    3259:	f2 e9 c1 fd ff ff    	bnd jmpq 3020 <.plt>
    325f:	90                   	nop
    3260:	f3 0f 1e fa          	endbr64 
    3264:	68 23 00 00 00       	pushq  $0x23
    3269:	f2 e9 b1 fd ff ff    	bnd jmpq 3020 <.plt>
    326f:	90                   	nop
    3270:	f3 0f 1e fa          	endbr64 
    3274:	68 24 00 00 00       	pushq  $0x24
    3279:	f2 e9 a1 fd ff ff    	bnd jmpq 3020 <.plt>
    327f:	90                   	nop
    3280:	f3 0f 1e fa          	endbr64 
    3284:	68 25 00 00 00       	pushq  $0x25
    3289:	f2 e9 91 fd ff ff    	bnd jmpq 3020 <.plt>
    328f:	90                   	nop
    3290:	f3 0f 1e fa          	endbr64 
    3294:	68 26 00 00 00       	pushq  $0x26
    3299:	f2 e9 81 fd ff ff    	bnd jmpq 3020 <.plt>
    329f:	90                   	nop
    32a0:	f3 0f 1e fa          	endbr64 
    32a4:	68 27 00 00 00       	pushq  $0x27
    32a9:	f2 e9 71 fd ff ff    	bnd jmpq 3020 <.plt>
    32af:	90                   	nop
    32b0:	f3 0f 1e fa          	endbr64 
    32b4:	68 28 00 00 00       	pushq  $0x28
    32b9:	f2 e9 61 fd ff ff    	bnd jmpq 3020 <.plt>
    32bf:	90                   	nop
    32c0:	f3 0f 1e fa          	endbr64 
    32c4:	68 29 00 00 00       	pushq  $0x29
    32c9:	f2 e9 51 fd ff ff    	bnd jmpq 3020 <.plt>
    32cf:	90                   	nop
    32d0:	f3 0f 1e fa          	endbr64 
    32d4:	68 2a 00 00 00       	pushq  $0x2a
    32d9:	f2 e9 41 fd ff ff    	bnd jmpq 3020 <.plt>
    32df:	90                   	nop
    32e0:	f3 0f 1e fa          	endbr64 
    32e4:	68 2b 00 00 00       	pushq  $0x2b
    32e9:	f2 e9 31 fd ff ff    	bnd jmpq 3020 <.plt>
    32ef:	90                   	nop
    32f0:	f3 0f 1e fa          	endbr64 
    32f4:	68 2c 00 00 00       	pushq  $0x2c
    32f9:	f2 e9 21 fd ff ff    	bnd jmpq 3020 <.plt>
    32ff:	90                   	nop
    3300:	f3 0f 1e fa          	endbr64 
    3304:	68 2d 00 00 00       	pushq  $0x2d
    3309:	f2 e9 11 fd ff ff    	bnd jmpq 3020 <.plt>
    330f:	90                   	nop
    3310:	f3 0f 1e fa          	endbr64 
    3314:	68 2e 00 00 00       	pushq  $0x2e
    3319:	f2 e9 01 fd ff ff    	bnd jmpq 3020 <.plt>
    331f:	90                   	nop
    3320:	f3 0f 1e fa          	endbr64 
    3324:	68 2f 00 00 00       	pushq  $0x2f
    3329:	f2 e9 f1 fc ff ff    	bnd jmpq 3020 <.plt>
    332f:	90                   	nop
    3330:	f3 0f 1e fa          	endbr64 
    3334:	68 30 00 00 00       	pushq  $0x30
    3339:	f2 e9 e1 fc ff ff    	bnd jmpq 3020 <.plt>
    333f:	90                   	nop
    3340:	f3 0f 1e fa          	endbr64 
    3344:	68 31 00 00 00       	pushq  $0x31
    3349:	f2 e9 d1 fc ff ff    	bnd jmpq 3020 <.plt>
    334f:	90                   	nop
    3350:	f3 0f 1e fa          	endbr64 
    3354:	68 32 00 00 00       	pushq  $0x32
    3359:	f2 e9 c1 fc ff ff    	bnd jmpq 3020 <.plt>
    335f:	90                   	nop
    3360:	f3 0f 1e fa          	endbr64 
    3364:	68 33 00 00 00       	pushq  $0x33
    3369:	f2 e9 b1 fc ff ff    	bnd jmpq 3020 <.plt>
    336f:	90                   	nop
    3370:	f3 0f 1e fa          	endbr64 
    3374:	68 34 00 00 00       	pushq  $0x34
    3379:	f2 e9 a1 fc ff ff    	bnd jmpq 3020 <.plt>
    337f:	90                   	nop
    3380:	f3 0f 1e fa          	endbr64 
    3384:	68 35 00 00 00       	pushq  $0x35
    3389:	f2 e9 91 fc ff ff    	bnd jmpq 3020 <.plt>
    338f:	90                   	nop
    3390:	f3 0f 1e fa          	endbr64 
    3394:	68 36 00 00 00       	pushq  $0x36
    3399:	f2 e9 81 fc ff ff    	bnd jmpq 3020 <.plt>
    339f:	90                   	nop
    33a0:	f3 0f 1e fa          	endbr64 
    33a4:	68 37 00 00 00       	pushq  $0x37
    33a9:	f2 e9 71 fc ff ff    	bnd jmpq 3020 <.plt>
    33af:	90                   	nop
    33b0:	f3 0f 1e fa          	endbr64 
    33b4:	68 38 00 00 00       	pushq  $0x38
    33b9:	f2 e9 61 fc ff ff    	bnd jmpq 3020 <.plt>
    33bf:	90                   	nop
    33c0:	f3 0f 1e fa          	endbr64 
    33c4:	68 39 00 00 00       	pushq  $0x39
    33c9:	f2 e9 51 fc ff ff    	bnd jmpq 3020 <.plt>
    33cf:	90                   	nop
    33d0:	f3 0f 1e fa          	endbr64 
    33d4:	68 3a 00 00 00       	pushq  $0x3a
    33d9:	f2 e9 41 fc ff ff    	bnd jmpq 3020 <.plt>
    33df:	90                   	nop
    33e0:	f3 0f 1e fa          	endbr64 
    33e4:	68 3b 00 00 00       	pushq  $0x3b
    33e9:	f2 e9 31 fc ff ff    	bnd jmpq 3020 <.plt>
    33ef:	90                   	nop
    33f0:	f3 0f 1e fa          	endbr64 
    33f4:	68 3c 00 00 00       	pushq  $0x3c
    33f9:	f2 e9 21 fc ff ff    	bnd jmpq 3020 <.plt>
    33ff:	90                   	nop
    3400:	f3 0f 1e fa          	endbr64 
    3404:	68 3d 00 00 00       	pushq  $0x3d
    3409:	f2 e9 11 fc ff ff    	bnd jmpq 3020 <.plt>
    340f:	90                   	nop
    3410:	f3 0f 1e fa          	endbr64 
    3414:	68 3e 00 00 00       	pushq  $0x3e
    3419:	f2 e9 01 fc ff ff    	bnd jmpq 3020 <.plt>
    341f:	90                   	nop

Disassembly of section .plt.got:

0000000000003420 <__cxa_finalize@plt>:
    3420:	f3 0f 1e fa          	endbr64 
    3424:	f2 ff 25 ad cb 00 00 	bnd jmpq *0xcbad(%rip)        # ffd8 <__cxa_finalize@GLIBC_2.2.5>
    342b:	0f 1f 44 00 00       	nopl   0x0(%rax,%rax,1)

Disassembly of section .plt.sec:

0000000000003430 <__printf_chk@plt>:
    3430:	f3 0f 1e fa          	endbr64 
    3434:	f2 ff 25 a5 c9 00 00 	bnd jmpq *0xc9a5(%rip)        # fde0 <__printf_chk@GLIBC_2.3.4>
    343b:	0f 1f 44 00 00       	nopl   0x0(%rax,%rax,1)

0000000000003440 <__errno_location@plt>:
    3440:	f3 0f 1e fa          	endbr64 
    3444:	f2 ff 25 9d c9 00 00 	bnd jmpq *0xc99d(%rip)        # fde8 <__errno_location@GLIBC_2.2.5>
    344b:	0f 1f 44 00 00       	nopl   0x0(%rax,%rax,1)

0000000000003450 <uname@plt>:
    3450:	f3 0f 1e fa          	endbr64 
    3454:	f2 ff 25 95 c9 00 00 	bnd jmpq *0xc995(%rip)        # fdf0 <uname@GLIBC_2.2.5>
    345b:	0f 1f 44 00 00       	nopl   0x0(%rax,%rax,1)

0000000000003460 <pthread_barrier_init@plt>:
    3460:	f3 0f 1e fa          	endbr64 
    3464:	f2 ff 25 8d c9 00 00 	bnd jmpq *0xc98d(%rip)        # fdf8 <pthread_barrier_init@GLIBC_2.2.5>
    346b:	0f 1f 44 00 00       	nopl   0x0(%rax,%rax,1)

0000000000003470 <strtoll@plt>:
    3470:	f3 0f 1e fa          	endbr64 
    3474:	f2 ff 25 85 c9 00 00 	bnd jmpq *0xc985(%rip)        # fe00 <strtoll@GLIBC_2.2.5>
    347b:	0f 1f 44 00 00       	nopl   0x0(%rax,%rax,1)

0000000000003480 <strstr@plt>:
    3480:	f3 0f 1e fa          	endbr64 
    3484:	f2 ff 25 7d c9 00 00 	bnd jmpq *0xc97d(%rip)        # fe08 <strstr@GLIBC_2.2.5>
    348b:	0f 1f 44 00 00       	nopl   0x0(%rax,%rax,1)

0000000000003490 <argp_parse@plt>:
    3490:	f3 0f 1e fa          	endbr64 
    3494:	f2 ff 25 75 c9 00 00 	bnd jmpq *0xc975(%rip)        # fe10 <argp_parse@GLIBC_2.2.5>
    349b:	0f 1f 44 00 00       	nopl   0x0(%rax,%rax,1)

00000000000034a0 <__vfprintf_chk@plt>:
    34a0:	f3 0f 1e fa          	endbr64 
    34a4:	f2 ff 25 6d c9 00 00 	bnd jmpq *0xc96d(%rip)        # fe18 <__vfprintf_chk@GLIBC_2.3.4>
    34ab:	0f 1f 44 00 00       	nopl   0x0(%rax,%rax,1)

00000000000034b0 <xmlNewChild@plt>:
    34b0:	f3 0f 1e fa          	endbr64 
    34b4:	f2 ff 25 65 c9 00 00 	bnd jmpq *0xc965(%rip)        # fe20 <xmlNewChild@LIBXML2_2.4.30>
    34bb:	0f 1f 44 00 00       	nopl   0x0(%rax,%rax,1)

00000000000034c0 <argp_state_help@plt>:
    34c0:	f3 0f 1e fa          	endbr64 
    34c4:	f2 ff 25 5d c9 00 00 	bnd jmpq *0xc95d(%rip)        # fe28 <argp_state_help@GLIBC_2.2.5>
    34cb:	0f 1f 44 00 00       	nopl   0x0(%rax,%rax,1)

00000000000034d0 <write@plt>:
    34d0:	f3 0f 1e fa          	endbr64 
    34d4:	f2 ff 25 55 c9 00 00 	bnd jmpq *0xc955(%rip)        # fe30 <write@GLIBC_2.2.5>
    34db:	0f 1f 44 00 00       	nopl   0x0(%rax,%rax,1)

00000000000034e0 <strchr@plt>:
    34e0:	f3 0f 1e fa          	endbr64 
    34e4:	f2 ff 25 4d c9 00 00 	bnd jmpq *0xc94d(%rip)        # fe38 <strchr@GLIBC_2.2.5>
    34eb:	0f 1f 44 00 00       	nopl   0x0(%rax,%rax,1)

00000000000034f0 <pthread_join@plt>:
    34f0:	f3 0f 1e fa          	endbr64 
    34f4:	f2 ff 25 45 c9 00 00 	bnd jmpq *0xc945(%rip)        # fe40 <pthread_join@GLIBC_2.2.5>
    34fb:	0f 1f 44 00 00       	nopl   0x0(%rax,%rax,1)

0000000000003500 <munmap@plt>:
    3500:	f3 0f 1e fa          	endbr64 
    3504:	f2 ff 25 3d c9 00 00 	bnd jmpq *0xc93d(%rip)        # fe48 <munmap@GLIBC_2.2.5>
    350b:	0f 1f 44 00 00       	nopl   0x0(%rax,%rax,1)

0000000000003510 <pthread_create@plt>:
    3510:	f3 0f 1e fa          	endbr64 
    3514:	f2 ff 25 35 c9 00 00 	bnd jmpq *0xc935(%rip)        # fe50 <pthread_create@GLIBC_2.2.5>
    351b:	0f 1f 44 00 00       	nopl   0x0(%rax,%rax,1)

0000000000003520 <__sprintf_chk@plt>:
    3520:	f3 0f 1e fa          	endbr64 
    3524:	f2 ff 25 2d c9 00 00 	bnd jmpq *0xc92d(%rip)        # fe58 <__sprintf_chk@GLIBC_2.3.4>
    352b:	0f 1f 44 00 00       	nopl   0x0(%rax,%rax,1)

0000000000003530 <sysconf@plt>:
    3530:	f3 0f 1e fa          	endbr64 
    3534:	f2 ff 25 25 c9 00 00 	bnd jmpq *0xc925(%rip)        # fe60 <sysconf@GLIBC_2.2.5>
    353b:	0f 1f 44 00 00       	nopl   0x0(%rax,%rax,1)

0000000000003540 <pthread_attr_setstacksize@plt>:
    3540:	f3 0f 1e fa          	endbr64 
    3544:	f2 ff 25 1d c9 00 00 	bnd jmpq *0xc91d(%rip)        # fe68 <pthread_attr_setstacksize@GLIBC_2.2.5>
    354b:	0f 1f 44 00 00       	nopl   0x0(%rax,%rax,1)

0000000000003550 <calloc@plt>:
    3550:	f3 0f 1e fa          	endbr64 
    3554:	f2 ff 25 15 c9 00 00 	bnd jmpq *0xc915(%rip)        # fe70 <calloc@GLIBC_2.2.5>
    355b:	0f 1f 44 00 00       	nopl   0x0(%rax,%rax,1)

0000000000003560 <open@plt>:
    3560:	f3 0f 1e fa          	endbr64 
    3564:	f2 ff 25 0d c9 00 00 	bnd jmpq *0xc90d(%rip)        # fe78 <open@GLIBC_2.2.5>
    356b:	0f 1f 44 00 00       	nopl   0x0(%rax,%rax,1)

0000000000003570 <pthread_barrier_wait@plt>:
    3570:	f3 0f 1e fa          	endbr64 
    3574:	f2 ff 25 05 c9 00 00 	bnd jmpq *0xc905(%rip)        # fe80 <pthread_barrier_wait@GLIBC_2.2.5>
    357b:	0f 1f 44 00 00       	nopl   0x0(%rax,%rax,1)

0000000000003580 <pthread_mutex_unlock@plt>:
    3580:	f3 0f 1e fa          	endbr64 
    3584:	f2 ff 25 fd c8 00 00 	bnd jmpq *0xc8fd(%rip)        # fe88 <pthread_mutex_unlock@GLIBC_2.2.5>
    358b:	0f 1f 44 00 00       	nopl   0x0(%rax,%rax,1)

0000000000003590 <strtod@plt>:
    3590:	f3 0f 1e fa          	endbr64 
    3594:	f2 ff 25 f5 c8 00 00 	bnd jmpq *0xc8f5(%rip)        # fe90 <strtod@GLIBC_2.2.5>
    359b:	0f 1f 44 00 00       	nopl   0x0(%rax,%rax,1)

00000000000035a0 <sqrt@plt>:
    35a0:	f3 0f 1e fa          	endbr64 
    35a4:	f2 ff 25 ed c8 00 00 	bnd jmpq *0xc8ed(%rip)        # fe98 <sqrt@GLIBC_2.2.5>
    35ab:	0f 1f 44 00 00       	nopl   0x0(%rax,%rax,1)

00000000000035b0 <uuid_generate@plt>:
    35b0:	f3 0f 1e fa          	endbr64 
    35b4:	f2 ff 25 e5 c8 00 00 	bnd jmpq *0xc8e5(%rip)        # fea0 <uuid_generate@UUID_1.0>
    35bb:	0f 1f 44 00 00       	nopl   0x0(%rax,%rax,1)

00000000000035c0 <xmlStrPrintf@plt>:
    35c0:	f3 0f 1e fa          	endbr64 
    35c4:	f2 ff 25 dd c8 00 00 	bnd jmpq *0xc8dd(%rip)        # fea8 <xmlStrPrintf@LIBXML2_2.6.0>
    35cb:	0f 1f 44 00 00       	nopl   0x0(%rax,%rax,1)

00000000000035d0 <log@plt>:
    35d0:	f3 0f 1e fa          	endbr64 
    35d4:	f2 ff 25 d5 c8 00 00 	bnd jmpq *0xc8d5(%rip)        # feb0 <log@GLIBC_2.29>
    35db:	0f 1f 44 00 00       	nopl   0x0(%rax,%rax,1)

00000000000035e0 <perror@plt>:
    35e0:	f3 0f 1e fa          	endbr64 
    35e4:	f2 ff 25 cd c8 00 00 	bnd jmpq *0xc8cd(%rip)        # feb8 <perror@GLIBC_2.2.5>
    35eb:	0f 1f 44 00 00       	nopl   0x0(%rax,%rax,1)

00000000000035f0 <gmtime@plt>:
    35f0:	f3 0f 1e fa          	endbr64 
    35f4:	f2 ff 25 c5 c8 00 00 	bnd jmpq *0xc8c5(%rip)        # fec0 <gmtime@GLIBC_2.2.5>
    35fb:	0f 1f 44 00 00       	nopl   0x0(%rax,%rax,1)

0000000000003600 <setrlimit@plt>:
    3600:	f3 0f 1e fa          	endbr64 
    3604:	f2 ff 25 bd c8 00 00 	bnd jmpq *0xc8bd(%rip)        # fec8 <setrlimit@GLIBC_2.2.5>
    360b:	0f 1f 44 00 00       	nopl   0x0(%rax,%rax,1)

0000000000003610 <time@plt>:
    3610:	f3 0f 1e fa          	endbr64 
    3614:	f2 ff 25 b5 c8 00 00 	bnd jmpq *0xc8b5(%rip)        # fed0 <time@GLIBC_2.2.5>
    361b:	0f 1f 44 00 00       	nopl   0x0(%rax,%rax,1)

0000000000003620 <uuid_unparse@plt>:
    3620:	f3 0f 1e fa          	endbr64 
    3624:	f2 ff 25 ad c8 00 00 	bnd jmpq *0xc8ad(%rip)        # fed8 <uuid_unparse@UUID_1.0>
    362b:	0f 1f 44 00 00       	nopl   0x0(%rax,%rax,1)

0000000000003630 <__isoc99_sscanf@plt>:
    3630:	f3 0f 1e fa          	endbr64 
    3634:	f2 ff 25 a5 c8 00 00 	bnd jmpq *0xc8a5(%rip)        # fee0 <__isoc99_sscanf@GLIBC_2.7>
    363b:	0f 1f 44 00 00       	nopl   0x0(%rax,%rax,1)

0000000000003640 <raise@plt>:
    3640:	f3 0f 1e fa          	endbr64 
    3644:	f2 ff 25 9d c8 00 00 	bnd jmpq *0xc89d(%rip)        # fee8 <raise@GLIBC_2.2.5>
    364b:	0f 1f 44 00 00       	nopl   0x0(%rax,%rax,1)

0000000000003650 <xmlKeepBlanksDefault@plt>:
    3650:	f3 0f 1e fa          	endbr64 
    3654:	f2 ff 25 95 c8 00 00 	bnd jmpq *0xc895(%rip)        # fef0 <xmlKeepBlanksDefault@LIBXML2_2.4.30>
    365b:	0f 1f 44 00 00       	nopl   0x0(%rax,%rax,1)

0000000000003660 <__stack_chk_fail@plt>:
    3660:	f3 0f 1e fa          	endbr64 
    3664:	f2 ff 25 8d c8 00 00 	bnd jmpq *0xc88d(%rip)        # fef8 <__stack_chk_fail@GLIBC_2.4>
    366b:	0f 1f 44 00 00       	nopl   0x0(%rax,%rax,1)

0000000000003670 <xmlNewProp@plt>:
    3670:	f3 0f 1e fa          	endbr64 
    3674:	f2 ff 25 85 c8 00 00 	bnd jmpq *0xc885(%rip)        # ff00 <xmlNewProp@LIBXML2_2.4.30>
    367b:	0f 1f 44 00 00       	nopl   0x0(%rax,%rax,1)

0000000000003680 <ctime_r@plt>:
    3680:	f3 0f 1e fa          	endbr64 
    3684:	f2 ff 25 7d c8 00 00 	bnd jmpq *0xc87d(%rip)        # ff08 <ctime_r@GLIBC_2.2.5>
    368b:	0f 1f 44 00 00       	nopl   0x0(%rax,%rax,1)

0000000000003690 <fopen@plt>:
    3690:	f3 0f 1e fa          	endbr64 
    3694:	f2 ff 25 75 c8 00 00 	bnd jmpq *0xc875(%rip)        # ff10 <fopen@GLIBC_2.2.5>
    369b:	0f 1f 44 00 00       	nopl   0x0(%rax,%rax,1)

00000000000036a0 <signal@plt>:
    36a0:	f3 0f 1e fa          	endbr64 
    36a4:	f2 ff 25 6d c8 00 00 	bnd jmpq *0xc86d(%rip)        # ff18 <signal@GLIBC_2.2.5>
    36ab:	0f 1f 44 00 00       	nopl   0x0(%rax,%rax,1)

00000000000036b0 <free@plt>:
    36b0:	f3 0f 1e fa          	endbr64 
    36b4:	f2 ff 25 65 c8 00 00 	bnd jmpq *0xc865(%rip)        # ff20 <free@GLIBC_2.2.5>
    36bb:	0f 1f 44 00 00       	nopl   0x0(%rax,%rax,1)

00000000000036c0 <exit@plt>:
    36c0:	f3 0f 1e fa          	endbr64 
    36c4:	f2 ff 25 5d c8 00 00 	bnd jmpq *0xc85d(%rip)        # ff28 <exit@GLIBC_2.2.5>
    36cb:	0f 1f 44 00 00       	nopl   0x0(%rax,%rax,1)

00000000000036d0 <pthread_attr_init@plt>:
    36d0:	f3 0f 1e fa          	endbr64 
    36d4:	f2 ff 25 55 c8 00 00 	bnd jmpq *0xc855(%rip)        # ff30 <pthread_attr_init@GLIBC_2.2.5>
    36db:	0f 1f 44 00 00       	nopl   0x0(%rax,%rax,1)

00000000000036e0 <xmlNewDoc@plt>:
    36e0:	f3 0f 1e fa          	endbr64 
    36e4:	f2 ff 25 4d c8 00 00 	bnd jmpq *0xc84d(%rip)        # ff38 <xmlNewDoc@LIBXML2_2.4.30>
    36eb:	0f 1f 44 00 00       	nopl   0x0(%rax,%rax,1)

00000000000036f0 <pread@plt>:
    36f0:	f3 0f 1e fa          	endbr64 
    36f4:	f2 ff 25 45 c8 00 00 	bnd jmpq *0xc845(%rip)        # ff40 <pread@GLIBC_2.2.5>
    36fb:	0f 1f 44 00 00       	nopl   0x0(%rax,%rax,1)

0000000000003700 <sigemptyset@plt>:
    3700:	f3 0f 1e fa          	endbr64 
    3704:	f2 ff 25 3d c8 00 00 	bnd jmpq *0xc83d(%rip)        # ff48 <sigemptyset@GLIBC_2.2.5>
    370b:	0f 1f 44 00 00       	nopl   0x0(%rax,%rax,1)

0000000000003710 <sigaction@plt>:
    3710:	f3 0f 1e fa          	endbr64 
    3714:	f2 ff 25 35 c8 00 00 	bnd jmpq *0xc835(%rip)        # ff50 <sigaction@GLIBC_2.2.5>
    371b:	0f 1f 44 00 00       	nopl   0x0(%rax,%rax,1)

0000000000003720 <malloc@plt>:
    3720:	f3 0f 1e fa          	endbr64 
    3724:	f2 ff 25 2d c8 00 00 	bnd jmpq *0xc82d(%rip)        # ff58 <malloc@GLIBC_2.2.5>
    372b:	0f 1f 44 00 00       	nopl   0x0(%rax,%rax,1)

0000000000003730 <xmlSaveFormatFileEnc@plt>:
    3730:	f3 0f 1e fa          	endbr64 
    3734:	f2 ff 25 25 c8 00 00 	bnd jmpq *0xc825(%rip)        # ff60 <xmlSaveFormatFileEnc@LIBXML2_2.4.30>
    373b:	0f 1f 44 00 00       	nopl   0x0(%rax,%rax,1)

0000000000003740 <strtol@plt>:
    3740:	f3 0f 1e fa          	endbr64 
    3744:	f2 ff 25 1d c8 00 00 	bnd jmpq *0xc81d(%rip)        # ff68 <strtol@GLIBC_2.2.5>
    374b:	0f 1f 44 00 00       	nopl   0x0(%rax,%rax,1)

0000000000003750 <usleep@plt>:
    3750:	f3 0f 1e fa          	endbr64 
    3754:	f2 ff 25 15 c8 00 00 	bnd jmpq *0xc815(%rip)        # ff70 <usleep@GLIBC_2.2.5>
    375b:	0f 1f 44 00 00       	nopl   0x0(%rax,%rax,1)

0000000000003760 <pthread_mutex_lock@plt>:
    3760:	f3 0f 1e fa          	endbr64 
    3764:	f2 ff 25 0d c8 00 00 	bnd jmpq *0xc80d(%rip)        # ff78 <pthread_mutex_lock@GLIBC_2.2.5>
    376b:	0f 1f 44 00 00       	nopl   0x0(%rax,%rax,1)

0000000000003770 <xmlCheckVersion@plt>:
    3770:	f3 0f 1e fa          	endbr64 
    3774:	f2 ff 25 05 c8 00 00 	bnd jmpq *0xc805(%rip)        # ff80 <xmlCheckVersion@LIBXML2_2.4.30>
    377b:	0f 1f 44 00 00       	nopl   0x0(%rax,%rax,1)

0000000000003780 <fread@plt>:
    3780:	f3 0f 1e fa          	endbr64 
    3784:	f2 ff 25 fd c7 00 00 	bnd jmpq *0xc7fd(%rip)        # ff88 <fread@GLIBC_2.2.5>
    378b:	0f 1f 44 00 00       	nopl   0x0(%rax,%rax,1)

0000000000003790 <puts@plt>:
    3790:	f3 0f 1e fa          	endbr64 
    3794:	f2 ff 25 f5 c7 00 00 	bnd jmpq *0xc7f5(%rip)        # ff90 <puts@GLIBC_2.2.5>
    379b:	0f 1f 44 00 00       	nopl   0x0(%rax,%rax,1)

00000000000037a0 <__fprintf_chk@plt>:
    37a0:	f3 0f 1e fa          	endbr64 
    37a4:	f2 ff 25 ed c7 00 00 	bnd jmpq *0xc7ed(%rip)        # ff98 <__fprintf_chk@GLIBC_2.3.4>
    37ab:	0f 1f 44 00 00       	nopl   0x0(%rax,%rax,1)

00000000000037b0 <pthread_attr_destroy@plt>:
    37b0:	f3 0f 1e fa          	endbr64 
    37b4:	f2 ff 25 e5 c7 00 00 	bnd jmpq *0xc7e5(%rip)        # ffa0 <pthread_attr_destroy@GLIBC_2.2.5>
    37bb:	0f 1f 44 00 00       	nopl   0x0(%rax,%rax,1)

00000000000037c0 <xmlDocSetRootElement@plt>:
    37c0:	f3 0f 1e fa          	endbr64 
    37c4:	f2 ff 25 dd c7 00 00 	bnd jmpq *0xc7dd(%rip)        # ffa8 <xmlDocSetRootElement@LIBXML2_2.4.30>
    37cb:	0f 1f 44 00 00       	nopl   0x0(%rax,%rax,1)

00000000000037d0 <xmlNewDocNode@plt>:
    37d0:	f3 0f 1e fa          	endbr64 
    37d4:	f2 ff 25 d5 c7 00 00 	bnd jmpq *0xc7d5(%rip)        # ffb0 <xmlNewDocNode@LIBXML2_2.4.30>
    37db:	0f 1f 44 00 00       	nopl   0x0(%rax,%rax,1)

00000000000037e0 <pow@plt>:
    37e0:	f3 0f 1e fa          	endbr64 
    37e4:	f2 ff 25 cd c7 00 00 	bnd jmpq *0xc7cd(%rip)        # ffb8 <pow@GLIBC_2.29>
    37eb:	0f 1f 44 00 00       	nopl   0x0(%rax,%rax,1)

00000000000037f0 <mmap@plt>:
    37f0:	f3 0f 1e fa          	endbr64 
    37f4:	f2 ff 25 c5 c7 00 00 	bnd jmpq *0xc7c5(%rip)        # ffc0 <mmap@GLIBC_2.2.5>
    37fb:	0f 1f 44 00 00       	nopl   0x0(%rax,%rax,1)

0000000000003800 <strdup@plt>:
    3800:	f3 0f 1e fa          	endbr64 
    3804:	f2 ff 25 bd c7 00 00 	bnd jmpq *0xc7bd(%rip)        # ffc8 <strdup@GLIBC_2.2.5>
    380b:	0f 1f 44 00 00       	nopl   0x0(%rax,%rax,1)

0000000000003810 <close@plt>:
    3810:	f3 0f 1e fa          	endbr64 
    3814:	f2 ff 25 b5 c7 00 00 	bnd jmpq *0xc7b5(%rip)        # ffd0 <close@GLIBC_2.2.5>
    381b:	0f 1f 44 00 00       	nopl   0x0(%rax,%rax,1)

Disassembly of section .text:

0000000000003820 <parse_opt>:
    3820:	f3 0f 1e fa          	endbr64 
    3824:	41 54                	push   %r12
    3826:	41 89 fc             	mov    %edi,%r12d
    3829:	48 89 d7             	mov    %rdx,%rdi
    382c:	55                   	push   %rbp
    382d:	53                   	push   %rbx
    382e:	48 8b 5a 28          	mov    0x28(%rdx),%rbx
    3832:	41 83 fc 7a          	cmp    $0x7a,%r12d
    3836:	7f 36                	jg     386e <parse_opt+0x4e>
    3838:	48 89 f5             	mov    %rsi,%rbp
    383b:	41 83 fc 60          	cmp    $0x60,%r12d
    383f:	7f 0e                	jg     384f <parse_opt+0x2f>
    3841:	45 85 e4             	test   %r12d,%r12d
    3844:	0f 84 8a 02 00 00    	je     3ad4 <parse_opt+0x2b4>
    384a:	e9 d9 02 00 00       	jmpq   3b28 <parse_opt+0x308>
    384f:	41 83 ec 61          	sub    $0x61,%r12d
    3853:	41 83 fc 19          	cmp    $0x19,%r12d
    3857:	0f 87 cb 02 00 00    	ja     3b28 <parse_opt+0x308>
    385d:	48 8d 15 7c 76 00 00 	lea    0x767c(%rip),%rdx        # aee0 <_IO_stdin_used+0xee0>
    3864:	4a 63 04 a2          	movslq (%rdx,%r12,4),%rax
    3868:	48 01 d0             	add    %rdx,%rax
    386b:	3e ff e0             	notrack jmpq *%rax
    386e:	41 81 fc 04 00 00 01 	cmp    $0x1000004,%r12d
    3875:	7f 14                	jg     388b <parse_opt+0x6b>
    3877:	41 81 fc 01 00 00 01 	cmp    $0x1000001,%r12d
    387e:	7f 7d                	jg     38fd <parse_opt+0xdd>
    3880:	0f 84 82 02 00 00    	je     3b08 <parse_opt+0x2e8>
    3886:	e9 9d 02 00 00       	jmpq   3b28 <parse_opt+0x308>
    388b:	41 81 fc 07 00 00 01 	cmp    $0x1000007,%r12d
    3892:	74 69                	je     38fd <parse_opt+0xdd>
    3894:	e9 8f 02 00 00       	jmpq   3b28 <parse_opt+0x308>
    3899:	48 85 f6             	test   %rsi,%rsi
    389c:	74 5f                	je     38fd <parse_opt+0xdd>
    389e:	ba 0a 00 00 00       	mov    $0xa,%edx
    38a3:	31 f6                	xor    %esi,%esi
    38a5:	48 89 ef             	mov    %rbp,%rdi
    38a8:	45 31 e4             	xor    %r12d,%r12d
    38ab:	e8 90 fe ff ff       	callq  3740 <strtol@plt>
    38b0:	89 43 04             	mov    %eax,0x4(%rbx)
    38b3:	e9 76 02 00 00       	jmpq   3b2e <parse_opt+0x30e>
    38b8:	48 85 f6             	test   %rsi,%rsi
    38bb:	74 40                	je     38fd <parse_opt+0xdd>
    38bd:	ba 0a 00 00 00       	mov    $0xa,%edx
    38c2:	31 f6                	xor    %esi,%esi
    38c4:	48 89 ef             	mov    %rbp,%rdi
    38c7:	45 31 e4             	xor    %r12d,%r12d
    38ca:	e8 71 fe ff ff       	callq  3740 <strtol@plt>
    38cf:	89 43 08             	mov    %eax,0x8(%rbx)
    38d2:	e9 57 02 00 00       	jmpq   3b2e <parse_opt+0x30e>
    38d7:	c7 43 54 01 00 00 00 	movl   $0x1,0x54(%rbx)
    38de:	45 31 e4             	xor    %r12d,%r12d
    38e1:	e9 48 02 00 00       	jmpq   3b2e <parse_opt+0x30e>
    38e6:	48 85 f6             	test   %rsi,%rsi
    38e9:	74 12                	je     38fd <parse_opt+0xdd>
    38eb:	ba 0a 00 00 00       	mov    $0xa,%edx
    38f0:	31 f6                	xor    %esi,%esi
    38f2:	48 89 ef             	mov    %rbp,%rdi
    38f5:	e8 46 fe ff ff       	callq  3740 <strtol@plt>
    38fa:	89 43 50             	mov    %eax,0x50(%rbx)
    38fd:	45 31 e4             	xor    %r12d,%r12d
    3900:	e9 29 02 00 00       	jmpq   3b2e <parse_opt+0x30e>
    3905:	48 89 f7             	mov    %rsi,%rdi
    3908:	e8 43 35 00 00       	callq  6e50 <get_pattern_from_name>
    390d:	48 89 43 18          	mov    %rax,0x18(%rbx)
    3911:	48 85 c0             	test   %rax,%rax
    3914:	75 e7                	jne    38fd <parse_opt+0xdd>
    3916:	48 8d 3d a5 70 00 00 	lea    0x70a5(%rip),%rdi        # a9c2 <_IO_stdin_used+0x9c2>
    391d:	41 bc 07 00 00 00    	mov    $0x7,%r12d
    3923:	e8 68 fe ff ff       	callq  3790 <puts@plt>
    3928:	48 8d 05 71 cb 00 00 	lea    0xcb71(%rip),%rax        # 104a0 <uniform_pattern>
    392f:	48 89 43 18          	mov    %rax,0x18(%rbx)
    3933:	e9 f6 01 00 00       	jmpq   3b2e <parse_opt+0x30e>
    3938:	48 89 f7             	mov    %rsi,%rdi
    393b:	e8 00 49 00 00       	callq  8240 <get_access_from_name>
    3940:	48 89 43 10          	mov    %rax,0x10(%rbx)
    3944:	48 85 c0             	test   %rax,%rax
    3947:	75 b4                	jne    38fd <parse_opt+0xdd>
    3949:	48 8d 3d 8d 70 00 00 	lea    0x708d(%rip),%rdi        # a9dd <_IO_stdin_used+0x9dd>
    3950:	41 bc 07 00 00 00    	mov    $0x7,%r12d
    3956:	e8 35 fe ff ff       	callq  3790 <puts@plt>
    395b:	48 8d 05 fe cb 00 00 	lea    0xcbfe(%rip),%rax        # 10560 <histogram_access>
    3962:	48 89 43 10          	mov    %rax,0x10(%rbx)
    3966:	e9 c3 01 00 00       	jmpq   3b2e <parse_opt+0x30e>
    396b:	48 89 f7             	mov    %rsi,%rdi
    396e:	e8 4d 3f 00 00       	callq  78c0 <get_timestamp_from_name>
    3973:	48 89 43 48          	mov    %rax,0x48(%rbx)
    3977:	48 85 c0             	test   %rax,%rax
    397a:	75 81                	jne    38fd <parse_opt+0xdd>
    397c:	48 8d 3d 74 70 00 00 	lea    0x7074(%rip),%rdi        # a9f7 <_IO_stdin_used+0x9f7>
    3983:	41 bc 07 00 00 00    	mov    $0x7,%r12d
    3989:	e8 02 fe ff ff       	callq  3790 <puts@plt>
    398e:	48 8d 05 ab cb 00 00 	lea    0xcbab(%rip),%rax        # 10540 <rdtsc_ops>
    3995:	48 89 43 48          	mov    %rax,0x48(%rbx)
    3999:	e9 90 01 00 00       	jmpq   3b2e <parse_opt+0x30e>
    399e:	48 85 f6             	test   %rsi,%rsi
    39a1:	0f 84 56 ff ff ff    	je     38fd <parse_opt+0xdd>
    39a7:	ba 0a 00 00 00       	mov    $0xa,%edx
    39ac:	31 f6                	xor    %esi,%esi
    39ae:	48 89 ef             	mov    %rbp,%rdi
    39b1:	45 31 e4             	xor    %r12d,%r12d
    39b4:	e8 87 fd ff ff       	callq  3740 <strtol@plt>
    39b9:	89 43 38             	mov    %eax,0x38(%rbx)
    39bc:	e9 6d 01 00 00       	jmpq   3b2e <parse_opt+0x30e>
    39c1:	48 85 f6             	test   %rsi,%rsi
    39c4:	0f 84 33 ff ff ff    	je     38fd <parse_opt+0xdd>
    39ca:	31 f6                	xor    %esi,%esi
    39cc:	48 89 ef             	mov    %rbp,%rdi
    39cf:	45 31 e4             	xor    %r12d,%r12d
    39d2:	e8 b9 fb ff ff       	callq  3590 <strtod@plt>
    39d7:	f2 0f 11 43 30       	movsd  %xmm0,0x30(%rbx)
    39dc:	e9 4d 01 00 00       	jmpq   3b2e <parse_opt+0x30e>
    39e1:	c7 43 3c 01 00 00 00 	movl   $0x1,0x3c(%rbx)
    39e8:	45 31 e4             	xor    %r12d,%r12d
    39eb:	e9 3e 01 00 00       	jmpq   3b2e <parse_opt+0x30e>
    39f0:	c7 43 40 01 00 00 00 	movl   $0x1,0x40(%rbx)
    39f7:	45 31 e4             	xor    %r12d,%r12d
    39fa:	e9 2f 01 00 00       	jmpq   3b2e <parse_opt+0x30e>
    39ff:	b8 32 00 00 00       	mov    $0x32,%eax
    3a04:	48 85 f6             	test   %rsi,%rsi
    3a07:	74 0f                	je     3a18 <parse_opt+0x1f8>
    3a09:	ba 0a 00 00 00       	mov    $0xa,%edx
    3a0e:	31 f6                	xor    %esi,%esi
    3a10:	48 89 ef             	mov    %rbp,%rdi
    3a13:	e8 28 fd ff ff       	callq  3740 <strtol@plt>
    3a18:	89 43 64             	mov    %eax,0x64(%rbx)
    3a1b:	83 f8 64             	cmp    $0x64,%eax
    3a1e:	0f 86 d9 fe ff ff    	jbe    38fd <parse_opt+0xdd>
    3a24:	48 8d 3d fd 66 00 00 	lea    0x66fd(%rip),%rdi        # a128 <_IO_stdin_used+0x128>
    3a2b:	e8 60 fd ff ff       	callq  3790 <puts@plt>
    3a30:	bf 01 00 00 00       	mov    $0x1,%edi
    3a35:	e8 86 fc ff ff       	callq  36c0 <exit@plt>
    3a3a:	48 85 f6             	test   %rsi,%rsi
    3a3d:	75 0c                	jne    3a4b <parse_opt+0x22b>
    3a3f:	c7 43 60 ff ff ff ff 	movl   $0xffffffff,0x60(%rbx)
    3a46:	83 cf ff             	or     $0xffffffff,%edi
    3a49:	eb 31                	jmp    3a7c <parse_opt+0x25c>
    3a4b:	48 89 ef             	mov    %rbp,%rdi
    3a4e:	ba 0a 00 00 00       	mov    $0xa,%edx
    3a53:	31 f6                	xor    %esi,%esi
    3a55:	e8 e6 fc ff ff       	callq  3740 <strtol@plt>
    3a5a:	89 43 60             	mov    %eax,0x60(%rbx)
    3a5d:	89 c7                	mov    %eax,%edi
    3a5f:	3d ff 03 00 00       	cmp    $0x3ff,%eax
    3a64:	7e 16                	jle    3a7c <parse_opt+0x25c>
    3a66:	48 8d 3d f3 66 00 00 	lea    0x66f3(%rip),%rdi        # a160 <_IO_stdin_used+0x160>
    3a6d:	e8 1e fd ff ff       	callq  3790 <puts@plt>
    3a72:	bf 01 00 00 00       	mov    $0x1,%edi
    3a77:	e8 44 fc ff ff       	callq  36c0 <exit@plt>
    3a7c:	e8 4f 34 00 00       	callq  6ed0 <get_offset_function>
    3a81:	45 31 e4             	xor    %r12d,%r12d
    3a84:	48 89 43 20          	mov    %rax,0x20(%rbx)
    3a88:	e9 a1 00 00 00       	jmpq   3b2e <parse_opt+0x30e>
    3a8d:	31 c0                	xor    %eax,%eax
    3a8f:	48 85 f6             	test   %rsi,%rsi
    3a92:	74 0f                	je     3aa3 <parse_opt+0x283>
    3a94:	ba 0a 00 00 00       	mov    $0xa,%edx
    3a99:	31 f6                	xor    %esi,%esi
    3a9b:	48 89 ef             	mov    %rbp,%rdi
    3a9e:	e8 9d fc ff ff       	callq  3740 <strtol@plt>
    3aa3:	89 43 58             	mov    %eax,0x58(%rbx)
    3aa6:	45 31 e4             	xor    %r12d,%r12d
    3aa9:	e9 80 00 00 00       	jmpq   3b2e <parse_opt+0x30e>
    3aae:	c7 43 5c 01 00 00 00 	movl   $0x1,0x5c(%rbx)
    3ab5:	45 31 e4             	xor    %r12d,%r12d
    3ab8:	eb 74                	jmp    3b2e <parse_opt+0x30e>
    3aba:	48 85 f6             	test   %rsi,%rsi
    3abd:	0f 84 3a fe ff ff    	je     38fd <parse_opt+0xdd>
    3ac3:	48 89 f7             	mov    %rsi,%rdi
    3ac6:	45 31 e4             	xor    %r12d,%r12d
    3ac9:	e8 32 fd ff ff       	callq  3800 <strdup@plt>
    3ace:	48 89 43 68          	mov    %rax,0x68(%rbx)
    3ad2:	eb 5a                	jmp    3b2e <parse_opt+0x30e>
    3ad4:	83 7a 20 00          	cmpl   $0x0,0x20(%rdx)
    3ad8:	74 11                	je     3aeb <parse_opt+0x2cb>
    3ada:	48 8b 35 1f cb 00 00 	mov    0xcb1f(%rip),%rsi        # 10600 <stderr@@GLIBC_2.2.5>
    3ae1:	ba 06 01 00 00       	mov    $0x106,%edx
    3ae6:	e8 d5 f9 ff ff       	callq  34c0 <argp_state_help@plt>
    3aeb:	b8 01 00 00 00       	mov    $0x1,%eax
    3af0:	48 85 ed             	test   %rbp,%rbp
    3af3:	74 0f                	je     3b04 <parse_opt+0x2e4>
    3af5:	ba 0a 00 00 00       	mov    $0xa,%edx
    3afa:	31 f6                	xor    %esi,%esi
    3afc:	48 89 ef             	mov    %rbp,%rdi
    3aff:	e8 3c fc ff ff       	callq  3740 <strtol@plt>
    3b04:	89 03                	mov    %eax,(%rbx)
    3b06:	eb 26                	jmp    3b2e <parse_opt+0x30e>
    3b08:	83 7a 20 00          	cmpl   $0x0,0x20(%rdx)
    3b0c:	0f 85 eb fd ff ff    	jne    38fd <parse_opt+0xdd>
    3b12:	48 8b 35 e7 ca 00 00 	mov    0xcae7(%rip),%rsi        # 10600 <stderr@@GLIBC_2.2.5>
    3b19:	ba 06 01 00 00       	mov    $0x106,%edx
    3b1e:	45 31 e4             	xor    %r12d,%r12d
    3b21:	e8 9a f9 ff ff       	callq  34c0 <argp_state_help@plt>
    3b26:	eb 06                	jmp    3b2e <parse_opt+0x30e>
    3b28:	41 bc 07 00 00 00    	mov    $0x7,%r12d
    3b2e:	44 89 e0             	mov    %r12d,%eax
    3b31:	5b                   	pop    %rbx
    3b32:	5d                   	pop    %rbp
    3b33:	41 5c                	pop    %r12
    3b35:	c3                   	retq   

0000000000003b36 <install_ctrlc_handler>:
    3b36:	55                   	push   %rbp
    3b37:	48 81 ec 40 01 00 00 	sub    $0x140,%rsp
    3b3e:	64 48 8b 04 25 28 00 	mov    %fs:0x28,%rax
    3b45:	00 00 
    3b47:	48 89 84 24 38 01 00 	mov    %rax,0x138(%rsp)
    3b4e:	00 
    3b4f:	31 c0                	xor    %eax,%eax
    3b51:	48 8d 7c 24 08       	lea    0x8(%rsp),%rdi
    3b56:	48 89 e5             	mov    %rsp,%rbp
    3b59:	e8 a2 fb ff ff       	callq  3700 <sigemptyset@plt>
    3b5e:	48 8d 05 2b 2f 00 00 	lea    0x2f2b(%rip),%rax        # 6a90 <sigint_sigaction_entry>
    3b65:	48 89 ee             	mov    %rbp,%rsi
    3b68:	48 8d 94 24 a0 00 00 	lea    0xa0(%rsp),%rdx
    3b6f:	00 
    3b70:	bf 02 00 00 00       	mov    $0x2,%edi
    3b75:	48 89 04 24          	mov    %rax,(%rsp)
    3b79:	c7 84 24 88 00 00 00 	movl   $0x4,0x88(%rsp)
    3b80:	04 00 00 00 
    3b84:	e8 87 fb ff ff       	callq  3710 <sigaction@plt>
    3b89:	83 f8 ff             	cmp    $0xffffffff,%eax
    3b8c:	75 2b                	jne    3bb9 <install_ctrlc_handler+0x83>
    3b8e:	48 8d 35 db 73 00 00 	lea    0x73db(%rip),%rsi        # af70 <__func__.10387>
    3b95:	48 8d 3d f4 65 00 00 	lea    0x65f4(%rip),%rdi        # a190 <_IO_stdin_used+0x190>
    3b9c:	31 c0                	xor    %eax,%eax
    3b9e:	e8 ed 2d 00 00       	callq  6990 <prn>
    3ba3:	48 8d 3d 6a 6e 00 00 	lea    0x6e6a(%rip),%rdi        # aa14 <_IO_stdin_used+0xa14>
    3baa:	e8 31 fa ff ff       	callq  35e0 <perror@plt>
    3baf:	bf 01 00 00 00       	mov    $0x1,%edi
    3bb4:	e8 07 fb ff ff       	callq  36c0 <exit@plt>
    3bb9:	48 8b 8c 24 38 01 00 	mov    0x138(%rsp),%rcx
    3bc0:	00 
    3bc1:	64 48 33 0c 25 28 00 	xor    %fs:0x28,%rcx
    3bc8:	00 00 
    3bca:	74 05                	je     3bd1 <install_ctrlc_handler+0x9b>
    3bcc:	e8 8f fa ff ff       	callq  3660 <__stack_chk_fail@plt>
    3bd1:	48 81 c4 40 01 00 00 	add    $0x140,%rsp
    3bd8:	5d                   	pop    %rbp
    3bd9:	c3                   	retq   

0000000000003bda <print_con_report>:
    3bda:	f3 0f 1e fa          	endbr64 
    3bde:	41 56                	push   %r14
    3be0:	41 55                	push   %r13
    3be2:	41 54                	push   %r12
    3be4:	49 89 fc             	mov    %rdi,%r12
    3be7:	48 8d 3d ca 65 00 00 	lea    0x65ca(%rip),%rdi        # a1b8 <_IO_stdin_used+0x1b8>
    3bee:	55                   	push   %rbp
    3bef:	53                   	push   %rbx
    3bf0:	48 89 f3             	mov    %rsi,%rbx
    3bf3:	48 83 ec 50          	sub    $0x50,%rsp
    3bf7:	64 48 8b 04 25 28 00 	mov    %fs:0x28,%rax
    3bfe:	00 00 
    3c00:	48 89 44 24 48       	mov    %rax,0x48(%rsp)
    3c05:	31 c0                	xor    %eax,%eax
    3c07:	e8 84 fb ff ff       	callq  3790 <puts@plt>
    3c0c:	31 c0                	xor    %eax,%eax
    3c0e:	e8 4d 41 00 00       	callq  7d60 <sys_print_pmbench_info>
    3c13:	31 c0                	xor    %eax,%eax
    3c15:	e8 66 41 00 00       	callq  7d80 <sys_print_hostname>
    3c1a:	31 c0                	xor    %eax,%eax
    3c1c:	e8 3f 42 00 00       	callq  7e60 <sys_get_cpu_arch>
    3c21:	bf 04 00 00 00       	mov    $0x4,%edi
    3c26:	48 89 c5             	mov    %rax,%rbp
    3c29:	e8 02 42 00 00       	callq  7e30 <sys_get_os_version_string>
    3c2e:	31 ff                	xor    %edi,%edi
    3c30:	49 89 c5             	mov    %rax,%r13
    3c33:	e8 f8 41 00 00       	callq  7e30 <sys_get_os_version_string>
    3c38:	49 89 e8             	mov    %rbp,%r8
    3c3b:	4c 89 e9             	mov    %r13,%rcx
    3c3e:	bf 01 00 00 00       	mov    $0x1,%edi
    3c43:	48 89 c2             	mov    %rax,%rdx
    3c46:	48 8d 35 07 6e 00 00 	lea    0x6e07(%rip),%rsi        # aa54 <_IO_stdin_used+0xa54>
    3c4d:	31 c0                	xor    %eax,%eax
    3c4f:	e8 dc f7 ff ff       	callq  3430 <__printf_chk@plt>
    3c54:	31 c0                	xor    %eax,%eax
    3c56:	e8 15 42 00 00       	callq  7e70 <sys_print_time_info>
    3c5b:	31 c0                	xor    %eax,%eax
    3c5d:	e8 ae 43 00 00       	callq  8010 <sys_print_uuid>
    3c62:	48 8d 3d 06 6e 00 00 	lea    0x6e06(%rip),%rdi        # aa6f <_IO_stdin_used+0xa6f>
    3c69:	e8 22 fb ff ff       	callq  3790 <puts@plt>
    3c6e:	8b 13                	mov    (%rbx),%edx
    3c70:	48 8d 35 09 6e 00 00 	lea    0x6e09(%rip),%rsi        # aa80 <_IO_stdin_used+0xa80>
    3c77:	31 c0                	xor    %eax,%eax
    3c79:	bf 01 00 00 00       	mov    $0x1,%edi
    3c7e:	e8 ad f7 ff ff       	callq  3430 <__printf_chk@plt>
    3c83:	8b 53 04             	mov    0x4(%rbx),%edx
    3c86:	bf 01 00 00 00       	mov    $0x1,%edi
    3c8b:	31 c0                	xor    %eax,%eax
    3c8d:	48 8d 35 01 6e 00 00 	lea    0x6e01(%rip),%rsi        # aa95 <_IO_stdin_used+0xa95>
    3c94:	e8 97 f7 ff ff       	callq  3430 <__printf_chk@plt>
    3c99:	8b 53 08             	mov    0x8(%rbx),%edx
    3c9c:	bf 01 00 00 00       	mov    $0x1,%edi
    3ca1:	31 c0                	xor    %eax,%eax
    3ca3:	48 8d 35 00 6e 00 00 	lea    0x6e00(%rip),%rsi        # aaaa <_IO_stdin_used+0xaaa>
    3caa:	e8 81 f7 ff ff       	callq  3430 <__printf_chk@plt>
    3caf:	8b 53 54             	mov    0x54(%rbx),%edx
    3cb2:	bf 01 00 00 00       	mov    $0x1,%edi
    3cb7:	31 c0                	xor    %eax,%eax
    3cb9:	48 8d 35 ff 6d 00 00 	lea    0x6dff(%rip),%rsi        # aabf <_IO_stdin_used+0xabf>
    3cc0:	e8 6b f7 ff ff       	callq  3430 <__printf_chk@plt>
    3cc5:	f2 0f 10 43 30       	movsd  0x30(%rbx),%xmm0
    3cca:	48 8d 35 03 6e 00 00 	lea    0x6e03(%rip),%rsi        # aad4 <_IO_stdin_used+0xad4>
    3cd1:	b0 01                	mov    $0x1,%al
    3cd3:	bf 01 00 00 00       	mov    $0x1,%edi
    3cd8:	e8 53 f7 ff ff       	callq  3430 <__printf_chk@plt>
    3cdd:	8b 53 38             	mov    0x38(%rbx),%edx
    3ce0:	bf 01 00 00 00       	mov    $0x1,%edi
    3ce5:	31 c0                	xor    %eax,%eax
    3ce7:	48 8d 35 fb 6d 00 00 	lea    0x6dfb(%rip),%rsi        # aae9 <_IO_stdin_used+0xae9>
    3cee:	e8 3d f7 ff ff       	callq  3430 <__printf_chk@plt>
    3cf3:	8b 53 3c             	mov    0x3c(%rbx),%edx
    3cf6:	bf 01 00 00 00       	mov    $0x1,%edi
    3cfb:	31 c0                	xor    %eax,%eax
    3cfd:	48 8d 35 fa 6d 00 00 	lea    0x6dfa(%rip),%rsi        # aafe <_IO_stdin_used+0xafe>
    3d04:	e8 27 f7 ff ff       	callq  3430 <__printf_chk@plt>
    3d09:	8b 53 40             	mov    0x40(%rbx),%edx
    3d0c:	31 c0                	xor    %eax,%eax
    3d0e:	bf 01 00 00 00       	mov    $0x1,%edi
    3d13:	48 8d 35 f9 6d 00 00 	lea    0x6df9(%rip),%rsi        # ab13 <_IO_stdin_used+0xb13>
    3d1a:	e8 11 f7 ff ff       	callq  3430 <__printf_chk@plt>
    3d1f:	8b 53 50             	mov    0x50(%rbx),%edx
    3d22:	bf 01 00 00 00       	mov    $0x1,%edi
    3d27:	31 c0                	xor    %eax,%eax
    3d29:	48 8d 35 f8 6d 00 00 	lea    0x6df8(%rip),%rsi        # ab28 <_IO_stdin_used+0xb28>
    3d30:	e8 fb f6 ff ff       	callq  3430 <__printf_chk@plt>
    3d35:	48 8d 35 01 6e 00 00 	lea    0x6e01(%rip),%rsi        # ab3d <_IO_stdin_used+0xb3d>
    3d3c:	bf 01 00 00 00       	mov    $0x1,%edi
    3d41:	31 c0                	xor    %eax,%eax
    3d43:	e8 e8 f6 ff ff       	callq  3430 <__printf_chk@plt>
    3d48:	8b 53 60             	mov    0x60(%rbx),%edx
    3d4b:	85 d2                	test   %edx,%edx
    3d4d:	79 0e                	jns    3d5d <print_con_report+0x183>
    3d4f:	48 8d 3d f9 6d 00 00 	lea    0x6df9(%rip),%rdi        # ab4f <_IO_stdin_used+0xb4f>
    3d56:	e8 35 fa ff ff       	callq  3790 <puts@plt>
    3d5b:	eb 13                	jmp    3d70 <print_con_report+0x196>
    3d5d:	48 8d 35 c0 6d 00 00 	lea    0x6dc0(%rip),%rsi        # ab24 <_IO_stdin_used+0xb24>
    3d64:	bf 01 00 00 00       	mov    $0x1,%edi
    3d69:	31 c0                	xor    %eax,%eax
    3d6b:	e8 c0 f6 ff ff       	callq  3430 <__printf_chk@plt>
    3d70:	8b 53 64             	mov    0x64(%rbx),%edx
    3d73:	48 8d 35 dc 6d 00 00 	lea    0x6ddc(%rip),%rsi        # ab56 <_IO_stdin_used+0xb56>
    3d7a:	bf 01 00 00 00       	mov    $0x1,%edi
    3d7f:	31 c0                	xor    %eax,%eax
    3d81:	e8 aa f6 ff ff       	callq  3430 <__printf_chk@plt>
    3d86:	8b 53 58             	mov    0x58(%rbx),%edx
    3d89:	bf 01 00 00 00       	mov    $0x1,%edi
    3d8e:	31 c0                	xor    %eax,%eax
    3d90:	48 8d 35 d6 6d 00 00 	lea    0x6dd6(%rip),%rsi        # ab6d <_IO_stdin_used+0xb6d>
    3d97:	e8 94 f6 ff ff       	callq  3430 <__printf_chk@plt>
    3d9c:	8b 53 5c             	mov    0x5c(%rbx),%edx
    3d9f:	bf 01 00 00 00       	mov    $0x1,%edi
    3da4:	31 c0                	xor    %eax,%eax
    3da6:	48 8d 35 d5 6d 00 00 	lea    0x6dd5(%rip),%rsi        # ab82 <_IO_stdin_used+0xb82>
    3dad:	e8 7e f6 ff ff       	callq  3430 <__printf_chk@plt>
    3db2:	48 8b 43 18          	mov    0x18(%rbx),%rax
    3db6:	48 85 c0             	test   %rax,%rax
    3db9:	74 1c                	je     3dd7 <print_con_report+0x1fd>
    3dbb:	48 8b 50 20          	mov    0x20(%rax),%rdx
    3dbf:	48 85 d2             	test   %rdx,%rdx
    3dc2:	74 13                	je     3dd7 <print_con_report+0x1fd>
    3dc4:	48 8d 35 cc 6d 00 00 	lea    0x6dcc(%rip),%rsi        # ab97 <_IO_stdin_used+0xb97>
    3dcb:	bf 01 00 00 00       	mov    $0x1,%edi
    3dd0:	31 c0                	xor    %eax,%eax
    3dd2:	e8 59 f6 ff ff       	callq  3430 <__printf_chk@plt>
    3dd7:	48 8b 43 10          	mov    0x10(%rbx),%rax
    3ddb:	48 85 c0             	test   %rax,%rax
    3dde:	74 1c                	je     3dfc <print_con_report+0x222>
    3de0:	48 8b 50 20          	mov    0x20(%rax),%rdx
    3de4:	48 85 d2             	test   %rdx,%rdx
    3de7:	74 13                	je     3dfc <print_con_report+0x222>
    3de9:	48 8d 35 bc 6d 00 00 	lea    0x6dbc(%rip),%rsi        # abac <_IO_stdin_used+0xbac>
    3df0:	bf 01 00 00 00       	mov    $0x1,%edi
    3df5:	31 c0                	xor    %eax,%eax
    3df7:	e8 34 f6 ff ff       	callq  3430 <__printf_chk@plt>
    3dfc:	48 8b 43 48          	mov    0x48(%rbx),%rax
    3e00:	48 85 c0             	test   %rax,%rax
    3e03:	74 1c                	je     3e21 <print_con_report+0x247>
    3e05:	48 8b 50 18          	mov    0x18(%rax),%rdx
    3e09:	48 85 d2             	test   %rdx,%rdx
    3e0c:	74 13                	je     3e21 <print_con_report+0x247>
    3e0e:	48 8d 35 ac 6d 00 00 	lea    0x6dac(%rip),%rsi        # abc1 <_IO_stdin_used+0xbc1>
    3e15:	bf 01 00 00 00       	mov    $0x1,%edi
    3e1a:	31 c0                	xor    %eax,%eax
    3e1c:	e8 0f f6 ff ff       	callq  3430 <__printf_chk@plt>
    3e21:	83 3d 48 de 00 00 00 	cmpl   $0x0,0xde48(%rip)        # 11c70 <control+0x10>
    3e28:	74 0c                	je     3e36 <print_con_report+0x25c>
    3e2a:	48 8d 3d bf 63 00 00 	lea    0x63bf(%rip),%rdi        # a1f0 <_IO_stdin_used+0x1f0>
    3e31:	e8 5a f9 ff ff       	callq  3790 <puts@plt>
    3e36:	48 8d 3d fb 63 00 00 	lea    0x63fb(%rip),%rdi        # a238 <_IO_stdin_used+0x238>
    3e3d:	4c 8d 6c 24 10       	lea    0x10(%rsp),%r13
    3e42:	e8 49 f9 ff ff       	callq  3790 <puts@plt>
    3e47:	4c 89 ef             	mov    %r13,%rdi
    3e4a:	e8 71 33 00 00       	callq  71c0 <__cpuid_obtain_brand_string>
    3e4f:	85 c0                	test   %eax,%eax
    3e51:	74 18                	je     3e6b <print_con_report+0x291>
    3e53:	4c 89 ea             	mov    %r13,%rdx
    3e56:	48 8d 35 79 6d 00 00 	lea    0x6d79(%rip),%rsi        # abd6 <_IO_stdin_used+0xbd6>
    3e5d:	bf 01 00 00 00       	mov    $0x1,%edi
    3e62:	31 c0                	xor    %eax,%eax
    3e64:	e8 c7 f5 ff ff       	callq  3430 <__printf_chk@plt>
    3e69:	eb 0c                	jmp    3e77 <print_con_report+0x29d>
    3e6b:	48 8d 3d 78 6d 00 00 	lea    0x6d78(%rip),%rdi        # abea <_IO_stdin_used+0xbea>
    3e72:	e8 19 f9 ff ff       	callq  3790 <puts@plt>
    3e77:	8b 15 33 df 00 00    	mov    0xdf33(%rip),%edx        # 11db0 <freq_khz>
    3e7d:	bf 01 00 00 00       	mov    $0x1,%edi
    3e82:	31 c0                	xor    %eax,%eax
    3e84:	45 31 ed             	xor    %r13d,%r13d
    3e87:	48 8d 35 e2 63 00 00 	lea    0x63e2(%rip),%rsi        # a270 <_IO_stdin_used+0x270>
    3e8e:	31 ed                	xor    %ebp,%ebp
    3e90:	e8 9b f5 ff ff       	callq  3430 <__printf_chk@plt>
    3e95:	48 8d 3d 6c 6d 00 00 	lea    0x6d6c(%rip),%rdi        # ac08 <_IO_stdin_used+0xc08>
    3e9c:	e8 ef f8 ff ff       	callq  3790 <puts@plt>
    3ea1:	31 c0                	xor    %eax,%eax
    3ea3:	e8 d2 0a 00 00       	callq  497a <print_tlb_info>
    3ea8:	48 8d 3d 69 6d 00 00 	lea    0x6d69(%rip),%rdi        # ac18 <_IO_stdin_used+0xc18>
    3eaf:	e8 dc f8 ff ff       	callq  3790 <puts@plt>
    3eb4:	31 c0                	xor    %eax,%eax
    3eb6:	e8 1d 0e 00 00       	callq  4cd8 <print_cache_info>
    3ebb:	48 8d 3d de 63 00 00 	lea    0x63de(%rip),%rdi        # a2a0 <_IO_stdin_used+0x2a0>
    3ec2:	e8 c9 f8 ff ff       	callq  3790 <puts@plt>
    3ec7:	8b 0d a3 df 00 00    	mov    0xdfa3(%rip),%ecx        # 11e70 <params+0x50>
    3ecd:	39 cd                	cmp    %ecx,%ebp
    3ecf:	0f 8d 1b 03 00 00    	jge    41f0 <print_con_report+0x616>
    3ed5:	4c 8b 35 84 dd 00 00 	mov    0xdd84(%rip),%r14        # 11c60 <control>
    3edc:	8b 05 ce de 00 00    	mov    0xdece(%rip),%eax        # 11db0 <freq_khz>
    3ee2:	4d 01 ee             	add    %r13,%r14
    3ee5:	f3 48 0f 2a d8       	cvtsi2ss %rax,%xmm3
    3eea:	49 8b 56 18          	mov    0x18(%r14),%rdx
    3eee:	48 85 d2             	test   %rdx,%rdx
    3ef1:	78 07                	js     3efa <print_con_report+0x320>
    3ef3:	f3 48 0f 2a c2       	cvtsi2ss %rdx,%xmm0
    3ef8:	eb 15                	jmp    3f0f <print_con_report+0x335>
    3efa:	48 89 d0             	mov    %rdx,%rax
    3efd:	83 e2 01             	and    $0x1,%edx
    3f00:	48 d1 e8             	shr    %rax
    3f03:	48 09 d0             	or     %rdx,%rax
    3f06:	f3 48 0f 2a c0       	cvtsi2ss %rax,%xmm0
    3f0b:	f3 0f 58 c0          	addss  %xmm0,%xmm0
    3f0f:	49 8b 56 20          	mov    0x20(%r14),%rdx
    3f13:	48 85 d2             	test   %rdx,%rdx
    3f16:	78 07                	js     3f1f <print_con_report+0x345>
    3f18:	f3 48 0f 2a ca       	cvtsi2ss %rdx,%xmm1
    3f1d:	eb 15                	jmp    3f34 <print_con_report+0x35a>
    3f1f:	48 89 d0             	mov    %rdx,%rax
    3f22:	83 e2 01             	and    $0x1,%edx
    3f25:	48 d1 e8             	shr    %rax
    3f28:	48 09 d0             	or     %rdx,%rax
    3f2b:	f3 48 0f 2a c8       	cvtsi2ss %rax,%xmm1
    3f30:	f3 0f 58 c9          	addss  %xmm1,%xmm1
    3f34:	f3 0f 5e c1          	divss  %xmm1,%xmm0
    3f38:	49 8b 56 38          	mov    0x38(%r14),%rdx
    3f3c:	f3 0f 59 05 a4 70 00 	mulss  0x70a4(%rip),%xmm0        # afe8 <args_doc_str.10218+0x10>
    3f43:	00 
    3f44:	f3 0f 5e c3          	divss  %xmm3,%xmm0
    3f48:	48 85 d2             	test   %rdx,%rdx
    3f4b:	78 07                	js     3f54 <print_con_report+0x37a>
    3f4d:	f3 48 0f 2a ca       	cvtsi2ss %rdx,%xmm1
    3f52:	eb 15                	jmp    3f69 <print_con_report+0x38f>
    3f54:	48 89 d0             	mov    %rdx,%rax
    3f57:	83 e2 01             	and    $0x1,%edx
    3f5a:	48 d1 e8             	shr    %rax
    3f5d:	48 09 d0             	or     %rdx,%rax
    3f60:	f3 48 0f 2a c8       	cvtsi2ss %rax,%xmm1
    3f65:	f3 0f 58 c9          	addss  %xmm1,%xmm1
    3f69:	49 8b 56 40          	mov    0x40(%r14),%rdx
    3f6d:	48 85 d2             	test   %rdx,%rdx
    3f70:	78 07                	js     3f79 <print_con_report+0x39f>
    3f72:	f3 48 0f 2a d2       	cvtsi2ss %rdx,%xmm2
    3f77:	eb 15                	jmp    3f8e <print_con_report+0x3b4>
    3f79:	48 89 d0             	mov    %rdx,%rax
    3f7c:	83 e2 01             	and    $0x1,%edx
    3f7f:	48 d1 e8             	shr    %rax
    3f82:	48 09 d0             	or     %rdx,%rax
    3f85:	f3 48 0f 2a d0       	cvtsi2ss %rax,%xmm2
    3f8a:	f3 0f 58 d2          	addss  %xmm2,%xmm2
    3f8e:	f3 0f 5e ca          	divss  %xmm2,%xmm1
    3f92:	ff c5                	inc    %ebp
    3f94:	48 8d 35 8f 6c 00 00 	lea    0x6c8f(%rip),%rsi        # ac2a <_IO_stdin_used+0xc2a>
    3f9b:	31 c0                	xor    %eax,%eax
    3f9d:	89 ea                	mov    %ebp,%edx
    3f9f:	bf 01 00 00 00       	mov    $0x1,%edi
    3fa4:	f3 0f 59 0d 3c 70 00 	mulss  0x703c(%rip),%xmm1        # afe8 <args_doc_str.10218+0x10>
    3fab:	00 
    3fac:	f3 0f 5e cb          	divss  %xmm3,%xmm1
    3fb0:	f3 0f 5c c1          	subss  %xmm1,%xmm0
    3fb4:	f3 0f 11 44 24 0c    	movss  %xmm0,0xc(%rsp)
    3fba:	e8 71 f4 ff ff       	callq  3430 <__printf_chk@plt>
    3fbf:	8b 05 eb dd 00 00    	mov    0xddeb(%rip),%eax        # 11db0 <freq_khz>
    3fc5:	f3 0f 10 44 24 0c    	movss  0xc(%rsp),%xmm0
    3fcb:	48 8d 35 06 63 00 00 	lea    0x6306(%rip),%rsi        # a2d8 <_IO_stdin_used+0x2d8>
    3fd2:	bf 01 00 00 00       	mov    $0x1,%edi
    3fd7:	f3 48 0f 2a c8       	cvtsi2ss %rax,%xmm1
    3fdc:	b0 01                	mov    $0x1,%al
    3fde:	f3 0f 59 c8          	mulss  %xmm0,%xmm1
    3fe2:	f3 0f 5a c0          	cvtss2sd %xmm0,%xmm0
    3fe6:	f3 0f 5e 0d fa 6f 00 	divss  0x6ffa(%rip),%xmm1        # afe8 <args_doc_str.10218+0x10>
    3fed:	00 
    3fee:	f3 0f 2c d1          	cvttss2si %xmm1,%edx
    3ff2:	e8 39 f4 ff ff       	callq  3430 <__printf_chk@plt>
    3ff7:	48 8d 3d 3b 6c 00 00 	lea    0x6c3b(%rip),%rdi        # ac39 <_IO_stdin_used+0xc39>
    3ffe:	e8 8d f7 ff ff       	callq  3790 <puts@plt>
    4003:	49 8b 76 18          	mov    0x18(%r14),%rsi
    4007:	49 8b 4e 20          	mov    0x20(%r14),%rcx
    400b:	31 d2                	xor    %edx,%edx
    400d:	48 89 f0             	mov    %rsi,%rax
    4010:	48 f7 f1             	div    %rcx
    4013:	48 85 f6             	test   %rsi,%rsi
    4016:	78 07                	js     401f <print_con_report+0x445>
    4018:	f3 48 0f 2a c6       	cvtsi2ss %rsi,%xmm0
    401d:	eb 15                	jmp    4034 <print_con_report+0x45a>
    401f:	48 89 f2             	mov    %rsi,%rdx
    4022:	83 e6 01             	and    $0x1,%esi
    4025:	48 d1 ea             	shr    %rdx
    4028:	48 09 f2             	or     %rsi,%rdx
    402b:	f3 48 0f 2a c2       	cvtsi2ss %rdx,%xmm0
    4030:	f3 0f 58 c0          	addss  %xmm0,%xmm0
    4034:	48 85 c9             	test   %rcx,%rcx
    4037:	78 07                	js     4040 <print_con_report+0x466>
    4039:	f3 48 0f 2a c9       	cvtsi2ss %rcx,%xmm1
    403e:	eb 15                	jmp    4055 <print_con_report+0x47b>
    4040:	48 89 ca             	mov    %rcx,%rdx
    4043:	83 e1 01             	and    $0x1,%ecx
    4046:	48 d1 ea             	shr    %rdx
    4049:	48 09 ca             	or     %rcx,%rdx
    404c:	f3 48 0f 2a ca       	cvtsi2ss %rdx,%xmm1
    4051:	f3 0f 58 c9          	addss  %xmm1,%xmm1
    4055:	f3 0f 5e c1          	divss  %xmm1,%xmm0
    4059:	8b 15 51 dd 00 00    	mov    0xdd51(%rip),%edx        # 11db0 <freq_khz>
    405f:	bf 01 00 00 00       	mov    $0x1,%edi
    4064:	48 8d 35 ad 62 00 00 	lea    0x62ad(%rip),%rsi        # a318 <_IO_stdin_used+0x318>
    406b:	f3 48 0f 2a ca       	cvtsi2ss %rdx,%xmm1
    4070:	89 c2                	mov    %eax,%edx
    4072:	b0 01                	mov    $0x1,%al
    4074:	f3 0f 59 05 6c 6f 00 	mulss  0x6f6c(%rip),%xmm0        # afe8 <args_doc_str.10218+0x10>
    407b:	00 
    407c:	f3 0f 5e c1          	divss  %xmm1,%xmm0
    4080:	f3 0f 5a c0          	cvtss2sd %xmm0,%xmm0
    4084:	e8 a7 f3 ff ff       	callq  3430 <__printf_chk@plt>
    4089:	49 8b 56 20          	mov    0x20(%r14),%rdx
    408d:	bf 01 00 00 00       	mov    $0x1,%edi
    4092:	48 8d 35 bc 6b 00 00 	lea    0x6bbc(%rip),%rsi        # ac55 <_IO_stdin_used+0xc55>
    4099:	31 c0                	xor    %eax,%eax
    409b:	e8 90 f3 ff ff       	callq  3430 <__printf_chk@plt>
    40a0:	49 8b 76 38          	mov    0x38(%r14),%rsi
    40a4:	49 8b 4e 40          	mov    0x40(%r14),%rcx
    40a8:	31 d2                	xor    %edx,%edx
    40aa:	48 89 f0             	mov    %rsi,%rax
    40ad:	48 f7 f1             	div    %rcx
    40b0:	48 85 f6             	test   %rsi,%rsi
    40b3:	78 07                	js     40bc <print_con_report+0x4e2>
    40b5:	f3 48 0f 2a c6       	cvtsi2ss %rsi,%xmm0
    40ba:	eb 15                	jmp    40d1 <print_con_report+0x4f7>
    40bc:	48 89 f2             	mov    %rsi,%rdx
    40bf:	83 e6 01             	and    $0x1,%esi
    40c2:	48 d1 ea             	shr    %rdx
    40c5:	48 09 f2             	or     %rsi,%rdx
    40c8:	f3 48 0f 2a c2       	cvtsi2ss %rdx,%xmm0
    40cd:	f3 0f 58 c0          	addss  %xmm0,%xmm0
    40d1:	48 85 c9             	test   %rcx,%rcx
    40d4:	78 07                	js     40dd <print_con_report+0x503>
    40d6:	f3 48 0f 2a c9       	cvtsi2ss %rcx,%xmm1
    40db:	eb 15                	jmp    40f2 <print_con_report+0x518>
    40dd:	48 89 ca             	mov    %rcx,%rdx
    40e0:	83 e1 01             	and    $0x1,%ecx
    40e3:	48 d1 ea             	shr    %rdx
    40e6:	48 09 ca             	or     %rcx,%rdx
    40e9:	f3 48 0f 2a ca       	cvtsi2ss %rdx,%xmm1
    40ee:	f3 0f 58 c9          	addss  %xmm1,%xmm1
    40f2:	f3 0f 5e c1          	divss  %xmm1,%xmm0
    40f6:	8b 15 b4 dc 00 00    	mov    0xdcb4(%rip),%edx        # 11db0 <freq_khz>
    40fc:	bf 01 00 00 00       	mov    $0x1,%edi
    4101:	48 8d 35 50 62 00 00 	lea    0x6250(%rip),%rsi        # a358 <_IO_stdin_used+0x358>
    4108:	f3 48 0f 2a ca       	cvtsi2ss %rdx,%xmm1
    410d:	89 c2                	mov    %eax,%edx
    410f:	b0 01                	mov    $0x1,%al
    4111:	f3 0f 59 05 cf 6e 00 	mulss  0x6ecf(%rip),%xmm0        # afe8 <args_doc_str.10218+0x10>
    4118:	00 
    4119:	f3 0f 5e c1          	divss  %xmm1,%xmm0
    411d:	f3 0f 5a c0          	cvtss2sd %xmm0,%xmm0
    4121:	e8 0a f3 ff ff       	callq  3430 <__printf_chk@plt>
    4126:	49 8b 56 40          	mov    0x40(%r14),%rdx
    412a:	31 c0                	xor    %eax,%eax
    412c:	48 8d 35 22 6b 00 00 	lea    0x6b22(%rip),%rsi        # ac55 <_IO_stdin_used+0xc55>
    4133:	bf 01 00 00 00       	mov    $0x1,%edi
    4138:	e8 f3 f2 ff ff       	callq  3430 <__printf_chk@plt>
    413d:	83 3d 1c dd 00 00 00 	cmpl   $0x0,0xdd1c(%rip)        # 11e60 <params+0x40>
    4144:	0f 85 9d 00 00 00    	jne    41e7 <print_con_report+0x60d>
    414a:	49 8b 76 28          	mov    0x28(%r14),%rsi
    414e:	49 8b 4e 30          	mov    0x30(%r14),%rcx
    4152:	31 d2                	xor    %edx,%edx
    4154:	48 89 f0             	mov    %rsi,%rax
    4157:	48 f7 f1             	div    %rcx
    415a:	48 85 f6             	test   %rsi,%rsi
    415d:	78 07                	js     4166 <print_con_report+0x58c>
    415f:	f3 48 0f 2a c6       	cvtsi2ss %rsi,%xmm0
    4164:	eb 15                	jmp    417b <print_con_report+0x5a1>
    4166:	48 89 f2             	mov    %rsi,%rdx
    4169:	83 e6 01             	and    $0x1,%esi
    416c:	48 d1 ea             	shr    %rdx
    416f:	48 09 f2             	or     %rsi,%rdx
    4172:	f3 48 0f 2a c2       	cvtsi2ss %rdx,%xmm0
    4177:	f3 0f 58 c0          	addss  %xmm0,%xmm0
    417b:	48 85 c9             	test   %rcx,%rcx
    417e:	78 07                	js     4187 <print_con_report+0x5ad>
    4180:	f3 48 0f 2a c9       	cvtsi2ss %rcx,%xmm1
    4185:	eb 15                	jmp    419c <print_con_report+0x5c2>
    4187:	48 89 ca             	mov    %rcx,%rdx
    418a:	83 e1 01             	and    $0x1,%ecx
    418d:	48 d1 ea             	shr    %rdx
    4190:	48 09 ca             	or     %rcx,%rdx
    4193:	f3 48 0f 2a ca       	cvtsi2ss %rdx,%xmm1
    4198:	f3 0f 58 c9          	addss  %xmm1,%xmm1
    419c:	f3 0f 5e c1          	divss  %xmm1,%xmm0
    41a0:	8b 15 0a dc 00 00    	mov    0xdc0a(%rip),%edx        # 11db0 <freq_khz>
    41a6:	bf 01 00 00 00       	mov    $0x1,%edi
    41ab:	48 8d 35 e6 61 00 00 	lea    0x61e6(%rip),%rsi        # a398 <_IO_stdin_used+0x398>
    41b2:	f3 48 0f 2a ca       	cvtsi2ss %rdx,%xmm1
    41b7:	89 c2                	mov    %eax,%edx
    41b9:	b0 01                	mov    $0x1,%al
    41bb:	f3 0f 59 05 25 6e 00 	mulss  0x6e25(%rip),%xmm0        # afe8 <args_doc_str.10218+0x10>
    41c2:	00 
    41c3:	f3 0f 5e c1          	divss  %xmm1,%xmm0
    41c7:	f3 0f 5a c0          	cvtss2sd %xmm0,%xmm0
    41cb:	e8 60 f2 ff ff       	callq  3430 <__printf_chk@plt>
    41d0:	49 8b 56 30          	mov    0x30(%r14),%rdx
    41d4:	bf 01 00 00 00       	mov    $0x1,%edi
    41d9:	48 8d 35 75 6a 00 00 	lea    0x6a75(%rip),%rsi        # ac55 <_IO_stdin_used+0xc55>
    41e0:	31 c0                	xor    %eax,%eax
    41e2:	e8 49 f2 ff ff       	callq  3430 <__printf_chk@plt>
    41e7:	49 83 c5 50          	add    $0x50,%r13
    41eb:	e9 d7 fc ff ff       	jmpq   3ec7 <print_con_report+0x2ed>
    41f0:	48 8d 3d e1 61 00 00 	lea    0x61e1(%rip),%rdi        # a3d8 <_IO_stdin_used+0x3d8>
    41f7:	e8 94 f5 ff ff       	callq  3790 <puts@plt>
    41fc:	48 8b 43 10          	mov    0x10(%rbx),%rax
    4200:	8b 73 64             	mov    0x64(%rbx),%esi
    4203:	4c 89 e7             	mov    %r12,%rdi
    4206:	ff 50 18             	callq  *0x18(%rax)
    4209:	48 8d 3d 00 62 00 00 	lea    0x6200(%rip),%rdi        # a410 <_IO_stdin_used+0x410>
    4210:	e8 7b f5 ff ff       	callq  3790 <puts@plt>
    4215:	e8 16 11 00 00       	callq  5330 <sys_stat_mem_print_header>
    421a:	83 3d 3f dc 00 00 00 	cmpl   $0x0,0xdc3f(%rip)        # 11e60 <params+0x40>
    4221:	74 65                	je     4288 <print_con_report+0x6ae>
    4223:	48 8d 35 49 6a 00 00 	lea    0x6a49(%rip),%rsi        # ac73 <_IO_stdin_used+0xc73>
    422a:	bf 01 00 00 00       	mov    $0x1,%edi
    422f:	31 c0                	xor    %eax,%eax
    4231:	e8 fa f1 ff ff       	callq  3430 <__printf_chk@plt>
    4236:	48 8d 3d c3 da 00 00 	lea    0xdac3(%rip),%rdi        # 11d00 <mem_info_before_warmup>
    423d:	e8 fe 10 00 00       	callq  5340 <sys_stat_mem_print>
    4242:	48 8d 35 36 6a 00 00 	lea    0x6a36(%rip),%rsi        # ac7f <_IO_stdin_used+0xc7f>
    4249:	bf 01 00 00 00       	mov    $0x1,%edi
    424e:	31 c0                	xor    %eax,%eax
    4250:	e8 db f1 ff ff       	callq  3430 <__printf_chk@plt>
    4255:	83 3d a4 db 00 00 00 	cmpl   $0x0,0xdba4(%rip)        # 11e00 <mem_info_middle_run+0x40>
    425c:	48 8d 35 5d db 00 00 	lea    0xdb5d(%rip),%rsi        # 11dc0 <mem_info_middle_run>
    4263:	48 8d 3d 96 da 00 00 	lea    0xda96(%rip),%rdi        # 11d00 <mem_info_before_warmup>
    426a:	0f 85 a6 00 00 00    	jne    4316 <print_con_report+0x73c>
    4270:	48 8d 35 29 da 00 00 	lea    0xda29(%rip),%rsi        # 11ca0 <mem_info_after_run>
    4277:	48 8d 3d 82 da 00 00 	lea    0xda82(%rip),%rdi        # 11d00 <mem_info_before_warmup>
    427e:	e8 fb 10 00 00       	callq  537e <sys_stat_mem_print_delta>
    4283:	e9 ed 00 00 00       	jmpq   4375 <print_con_report+0x79b>
    4288:	48 8d 35 08 6a 00 00 	lea    0x6a08(%rip),%rsi        # ac97 <_IO_stdin_used+0xc97>
    428f:	bf 01 00 00 00       	mov    $0x1,%edi
    4294:	31 c0                	xor    %eax,%eax
    4296:	e8 95 f1 ff ff       	callq  3430 <__printf_chk@plt>
    429b:	48 8d 3d 5e da 00 00 	lea    0xda5e(%rip),%rdi        # 11d00 <mem_info_before_warmup>
    42a2:	e8 99 10 00 00       	callq  5340 <sys_stat_mem_print>
    42a7:	48 8d 35 d1 69 00 00 	lea    0x69d1(%rip),%rsi        # ac7f <_IO_stdin_used+0xc7f>
    42ae:	bf 01 00 00 00       	mov    $0x1,%edi
    42b3:	31 c0                	xor    %eax,%eax
    42b5:	e8 76 f1 ff ff       	callq  3430 <__printf_chk@plt>
    42ba:	48 8d 35 9f da 00 00 	lea    0xda9f(%rip),%rsi        # 11d60 <mem_info_before_run>
    42c1:	48 8d 3d 38 da 00 00 	lea    0xda38(%rip),%rdi        # 11d00 <mem_info_before_warmup>
    42c8:	e8 b1 10 00 00       	callq  537e <sys_stat_mem_print_delta>
    42cd:	48 8d 35 9f 69 00 00 	lea    0x699f(%rip),%rsi        # ac73 <_IO_stdin_used+0xc73>
    42d4:	bf 01 00 00 00       	mov    $0x1,%edi
    42d9:	31 c0                	xor    %eax,%eax
    42db:	e8 50 f1 ff ff       	callq  3430 <__printf_chk@plt>
    42e0:	48 8d 3d 79 da 00 00 	lea    0xda79(%rip),%rdi        # 11d60 <mem_info_before_run>
    42e7:	e8 54 10 00 00       	callq  5340 <sys_stat_mem_print>
    42ec:	31 c0                	xor    %eax,%eax
    42ee:	bf 01 00 00 00       	mov    $0x1,%edi
    42f3:	48 8d 35 85 69 00 00 	lea    0x6985(%rip),%rsi        # ac7f <_IO_stdin_used+0xc7f>
    42fa:	e8 31 f1 ff ff       	callq  3430 <__printf_chk@plt>
    42ff:	83 3d fa da 00 00 00 	cmpl   $0x0,0xdafa(%rip)        # 11e00 <mem_info_middle_run+0x40>
    4306:	74 5a                	je     4362 <print_con_report+0x788>
    4308:	48 8d 35 b1 da 00 00 	lea    0xdab1(%rip),%rsi        # 11dc0 <mem_info_middle_run>
    430f:	48 8d 3d 4a da 00 00 	lea    0xda4a(%rip),%rdi        # 11d60 <mem_info_before_run>
    4316:	e8 63 10 00 00       	callq  537e <sys_stat_mem_print_delta>
    431b:	48 8d 35 69 69 00 00 	lea    0x6969(%rip),%rsi        # ac8b <_IO_stdin_used+0xc8b>
    4322:	bf 01 00 00 00       	mov    $0x1,%edi
    4327:	31 c0                	xor    %eax,%eax
    4329:	e8 02 f1 ff ff       	callq  3430 <__printf_chk@plt>
    432e:	48 8d 3d 8b da 00 00 	lea    0xda8b(%rip),%rdi        # 11dc0 <mem_info_middle_run>
    4335:	e8 06 10 00 00       	callq  5340 <sys_stat_mem_print>
    433a:	48 8d 35 3e 69 00 00 	lea    0x693e(%rip),%rsi        # ac7f <_IO_stdin_used+0xc7f>
    4341:	bf 01 00 00 00       	mov    $0x1,%edi
    4346:	31 c0                	xor    %eax,%eax
    4348:	e8 e3 f0 ff ff       	callq  3430 <__printf_chk@plt>
    434d:	48 8d 35 4c d9 00 00 	lea    0xd94c(%rip),%rsi        # 11ca0 <mem_info_after_run>
    4354:	48 8d 3d 65 da 00 00 	lea    0xda65(%rip),%rdi        # 11dc0 <mem_info_middle_run>
    435b:	e8 1e 10 00 00       	callq  537e <sys_stat_mem_print_delta>
    4360:	eb 13                	jmp    4375 <print_con_report+0x79b>
    4362:	48 8d 35 37 d9 00 00 	lea    0xd937(%rip),%rsi        # 11ca0 <mem_info_after_run>
    4369:	48 8d 3d f0 d9 00 00 	lea    0xd9f0(%rip),%rdi        # 11d60 <mem_info_before_run>
    4370:	e8 09 10 00 00       	callq  537e <sys_stat_mem_print_delta>
    4375:	48 8d 35 27 69 00 00 	lea    0x6927(%rip),%rsi        # aca3 <_IO_stdin_used+0xca3>
    437c:	bf 01 00 00 00       	mov    $0x1,%edi
    4381:	31 c0                	xor    %eax,%eax
    4383:	e8 a8 f0 ff ff       	callq  3430 <__printf_chk@plt>
    4388:	48 8d 3d 11 d9 00 00 	lea    0xd911(%rip),%rdi        # 11ca0 <mem_info_after_run>
    438f:	e8 ac 0f 00 00       	callq  5340 <sys_stat_mem_print>
    4394:	48 8b 44 24 48       	mov    0x48(%rsp),%rax
    4399:	64 48 33 04 25 28 00 	xor    %fs:0x28,%rax
    43a0:	00 00 
    43a2:	74 05                	je     43a9 <print_con_report+0x7cf>
    43a4:	e8 b7 f2 ff ff       	callq  3660 <__stack_chk_fail@plt>
    43a9:	48 83 c4 50          	add    $0x50,%rsp
    43ad:	5b                   	pop    %rbx
    43ae:	5d                   	pop    %rbp
    43af:	41 5c                	pop    %r12
    43b1:	41 5d                	pop    %r13
    43b3:	41 5e                	pop    %r14
    43b5:	c3                   	retq   

00000000000043b6 <main>:
    43b6:	f3 0f 1e fa          	endbr64 
    43ba:	41 57                	push   %r15
    43bc:	41 56                	push   %r14
    43be:	41 55                	push   %r13
    43c0:	41 54                	push   %r12
    43c2:	49 89 f4             	mov    %rsi,%r12
    43c5:	55                   	push   %rbp
    43c6:	89 fd                	mov    %edi,%ebp
    43c8:	83 cf ff             	or     $0xffffffff,%edi
    43cb:	53                   	push   %rbx
    43cc:	48 8d 1d 4d c1 00 00 	lea    0xc14d(%rip),%rbx        # 10520 <rdtscp_ops>
    43d3:	48 81 ec a8 00 00 00 	sub    $0xa8,%rsp
    43da:	64 48 8b 04 25 28 00 	mov    %fs:0x28,%rax
    43e1:	00 00 
    43e3:	48 89 84 24 98 00 00 	mov    %rax,0x98(%rsp)
    43ea:	00 
    43eb:	31 c0                	xor    %eax,%eax
    43ed:	48 89 1d 74 da 00 00 	mov    %rbx,0xda74(%rip)        # 11e68 <params+0x48>
    43f4:	48 b8 78 00 00 00 00 	movabs $0x10000000078,%rax
    43fb:	01 00 00 
    43fe:	48 89 05 1b da 00 00 	mov    %rax,0xda1b(%rip)        # 11e20 <params>
    4405:	48 8d 05 54 c1 00 00 	lea    0xc154(%rip),%rax        # 10560 <histogram_access>
    440c:	48 89 05 1d da 00 00 	mov    %rax,0xda1d(%rip)        # 11e30 <params+0x10>
    4413:	48 8d 05 86 c0 00 00 	lea    0xc086(%rip),%rax        # 104a0 <uniform_pattern>
    441a:	48 89 05 17 da 00 00 	mov    %rax,0xda17(%rip)        # 11e38 <params+0x18>
    4421:	48 8b 05 c8 6b 00 00 	mov    0x6bc8(%rip),%rax        # aff0 <args_doc_str.10218+0x18>
    4428:	c7 05 f6 d9 00 00 80 	movl   $0x80,0xd9f6(%rip)        # 11e28 <params+0x8>
    442f:	00 00 00 
    4432:	48 89 05 17 da 00 00 	mov    %rax,0xda17(%rip)        # 11e50 <params+0x30>
    4439:	48 c7 05 14 da 00 00 	movq   $0x0,0xda14(%rip)        # 11e58 <params+0x38>
    4440:	00 00 00 00 
    4444:	c7 05 12 da 00 00 00 	movl   $0x0,0xda12(%rip)        # 11e60 <params+0x40>
    444b:	00 00 00 
    444e:	48 c7 05 17 da 00 00 	movq   $0x1,0xda17(%rip)        # 11e70 <params+0x50>
    4455:	01 00 00 00 
    4459:	48 c7 05 14 da 00 00 	movq   $0x0,0xda14(%rip)        # 11e78 <params+0x58>
    4460:	00 00 00 00 
    4464:	c7 05 12 da 00 00 ff 	movl   $0xffffffff,0xda12(%rip)        # 11e80 <params+0x60>
    446b:	ff ff ff 
    446e:	e8 5d 2a 00 00       	callq  6ed0 <get_offset_function>
    4473:	45 31 c0             	xor    %r8d,%r8d
    4476:	31 c9                	xor    %ecx,%ecx
    4478:	4c 89 e2             	mov    %r12,%rdx
    447b:	48 89 05 be d9 00 00 	mov    %rax,0xd9be(%rip)        # 11e40 <params+0x20>
    4482:	48 8d 05 77 60 00 00 	lea    0x6077(%rip),%rax        # a500 <_IO_stdin_used+0x500>
    4489:	89 ee                	mov    %ebp,%esi
    448b:	4c 8d 0d 8e d9 00 00 	lea    0xd98e(%rip),%r9        # 11e20 <params>
    4492:	48 89 05 6f c1 00 00 	mov    %rax,0xc16f(%rip)        # 10608 <argp_program_version@@GLIBC_2.2.5>
    4499:	48 8d 3d 80 bb 00 00 	lea    0xbb80(%rip),%rdi        # 10020 <argp.10219>
    44a0:	48 8d 05 81 60 00 00 	lea    0x6081(%rip),%rax        # a528 <_IO_stdin_used+0x528>
    44a7:	c7 05 d3 d9 00 00 32 	movl   $0x32,0xd9d3(%rip)        # 11e84 <params+0x64>
    44ae:	00 00 00 
    44b1:	48 c7 05 cc d9 00 00 	movq   $0x0,0xd9cc(%rip)        # 11e88 <params+0x68>
    44b8:	00 00 00 00 
    44bc:	48 89 05 2d c1 00 00 	mov    %rax,0xc12d(%rip)        # 105f0 <argp_program_bug_address@@GLIBC_2.2.5>
    44c3:	e8 c8 ef ff ff       	callq  3490 <argp_parse@plt>
    44c8:	83 3d 51 d9 00 00 00 	cmpl   $0x0,0xd951(%rip)        # 11e20 <params>
    44cf:	7f 16                	jg     44e7 <main+0x131>
    44d1:	48 8d 3d 78 60 00 00 	lea    0x6078(%rip),%rdi        # a550 <_IO_stdin_used+0x550>
    44d8:	e8 b3 f2 ff ff       	callq  3790 <puts@plt>
    44dd:	bf 01 00 00 00       	mov    $0x1,%edi
    44e2:	e8 d9 f1 ff ff       	callq  36c0 <exit@plt>
    44e7:	8b 05 3b d9 00 00    	mov    0xd93b(%rip),%eax        # 11e28 <params+0x8>
    44ed:	39 05 31 d9 00 00    	cmp    %eax,0xd931(%rip)        # 11e24 <params+0x4>
    44f3:	7d 16                	jge    450b <main+0x155>
    44f5:	48 8d 3d 8c 60 00 00 	lea    0x608c(%rip),%rdi        # a588 <_IO_stdin_used+0x588>
    44fc:	e8 8f f2 ff ff       	callq  3790 <puts@plt>
    4501:	bf 01 00 00 00       	mov    $0x1,%edi
    4506:	e8 b5 f1 ff ff       	callq  36c0 <exit@plt>
    450b:	83 3d 5e d9 00 00 00 	cmpl   $0x0,0xd95e(%rip)        # 11e70 <params+0x50>
    4512:	7f 16                	jg     452a <main+0x174>
    4514:	48 8d 3d a5 60 00 00 	lea    0x60a5(%rip),%rdi        # a5c0 <_IO_stdin_used+0x5c0>
    451b:	e8 70 f2 ff ff       	callq  3790 <puts@plt>
    4520:	bf 01 00 00 00       	mov    $0x1,%edi
    4525:	e8 96 f1 ff ff       	callq  36c0 <exit@plt>
    452a:	e8 01 26 00 00       	callq  6b30 <disable_core_dump>
    452f:	e8 fc 2b 00 00       	callq  7130 <is_tsc_invariant>
    4534:	85 c0                	test   %eax,%eax
    4536:	75 0c                	jne    4544 <main+0x18e>
    4538:	48 8d 3d b9 60 00 00 	lea    0x60b9(%rip),%rdi        # a5f8 <_IO_stdin_used+0x5f8>
    453f:	e8 4c 24 00 00       	callq  6990 <prn>
    4544:	48 39 1d 1d d9 00 00 	cmp    %rbx,0xd91d(%rip)        # 11e68 <params+0x48>
    454b:	75 23                	jne    4570 <main+0x1ba>
    454d:	e8 4e 2b 00 00       	callq  70a0 <is_rdtscp_available>
    4552:	85 c0                	test   %eax,%eax
    4554:	75 1a                	jne    4570 <main+0x1ba>
    4556:	48 8d 3d 03 61 00 00 	lea    0x6103(%rip),%rdi        # a660 <_IO_stdin_used+0x660>
    455d:	e8 2e 24 00 00       	callq  6990 <prn>
    4562:	48 8d 05 d7 bf 00 00 	lea    0xbfd7(%rip),%rax        # 10540 <rdtsc_ops>
    4569:	48 89 05 f8 d8 00 00 	mov    %rax,0xd8f8(%rip)        # 11e68 <params+0x48>
    4570:	bf 1e 00 00 00       	mov    $0x1e,%edi
    4575:	e8 b6 ef ff ff       	callq  3530 <sysconf@plt>
    457a:	48 3d 00 10 00 00    	cmp    $0x1000,%rax
    4580:	74 19                	je     459b <main+0x1e5>
    4582:	48 8d 3d 27 61 00 00 	lea    0x6127(%rip),%rdi        # a6b0 <_IO_stdin_used+0x6b0>
    4589:	31 c0                	xor    %eax,%eax
    458b:	41 bc 01 00 00 00    	mov    $0x1,%r12d
    4591:	e8 fa 23 00 00       	callq  6990 <prn>
    4596:	e9 25 03 00 00       	jmpq   48c0 <main+0x50a>
    459b:	48 8d 3d 9e bf 00 00 	lea    0xbf9e(%rip),%rdi        # 10540 <rdtsc_ops>
    45a2:	ff 15 a0 bf 00 00    	callq  *0xbfa0(%rip)        # 10548 <rdtsc_ops+0x8>
    45a8:	48 8d 3d 71 bf 00 00 	lea    0xbf71(%rip),%rdi        # 10520 <rdtscp_ops>
    45af:	ff 15 73 bf 00 00    	callq  *0xbf73(%rip)        # 10528 <rdtscp_ops+0x8>
    45b5:	44 8b 35 68 d8 00 00 	mov    0xd868(%rip),%r14d        # 11e24 <params+0x4>
    45bc:	31 d2                	xor    %edx,%edx
    45be:	48 8b 05 a3 d8 00 00 	mov    0xd8a3(%rip),%rax        # 11e68 <params+0x48>
    45c5:	b9 22 00 00 00       	mov    $0x22,%ecx
    45ca:	41 c1 e6 08          	shl    $0x8,%r14d
    45ce:	83 3d af d8 00 00 63 	cmpl   $0x63,0xd8af(%rip)        # 11e84 <params+0x64>
    45d5:	8b 40 10             	mov    0x10(%rax),%eax
    45d8:	4d 63 ee             	movslq %r14d,%r13
    45db:	0f 9e c2             	setle  %dl
    45de:	45 31 c9             	xor    %r9d,%r9d
    45e1:	41 83 c8 ff          	or     $0xffffffff,%r8d
    45e5:	49 c1 e5 0c          	shl    $0xc,%r13
    45e9:	8d 54 12 01          	lea    0x1(%rdx,%rdx,1),%edx
    45ed:	31 ff                	xor    %edi,%edi
    45ef:	89 05 bb d7 00 00    	mov    %eax,0xd7bb(%rip)        # 11db0 <freq_khz>
    45f5:	4c 89 ee             	mov    %r13,%rsi
    45f8:	e8 f3 f1 ff ff       	callq  37f0 <mmap@plt>
    45fd:	49 89 c4             	mov    %rax,%r12
    4600:	48 83 f8 ff          	cmp    $0xffffffffffffffff,%rax
    4604:	75 17                	jne    461d <main+0x267>
    4606:	48 8d 3d 1a 67 00 00 	lea    0x671a(%rip),%rdi        # ad27 <_IO_stdin_used+0xd27>
    460d:	41 bc 01 00 00 00    	mov    $0x1,%r12d
    4613:	e8 c8 ef ff ff       	callq  35e0 <perror@plt>
    4618:	e9 a3 02 00 00       	jmpq   48c0 <main+0x50a>
    461d:	8b 35 4d d8 00 00    	mov    0xd84d(%rip),%esi        # 11e70 <params+0x50>
    4623:	45 31 c9             	xor    %r9d,%r9d
    4626:	41 83 c8 ff          	or     $0xffffffff,%r8d
    462a:	31 ff                	xor    %edi,%edi
    462c:	b9 22 00 00 00       	mov    $0x22,%ecx
    4631:	ba 03 00 00 00       	mov    $0x3,%edx
    4636:	c1 e6 0c             	shl    $0xc,%esi
    4639:	48 63 f6             	movslq %esi,%rsi
    463c:	e8 af f1 ff ff       	callq  37f0 <mmap@plt>
    4641:	48 89 c5             	mov    %rax,%rbp
    4644:	48 83 f8 ff          	cmp    $0xffffffffffffffff,%rax
    4648:	75 17                	jne    4661 <main+0x2ab>
    464a:	48 8d 3d e6 66 00 00 	lea    0x66e6(%rip),%rdi        # ad37 <_IO_stdin_used+0xd37>
    4651:	41 bc 01 00 00 00    	mov    $0x1,%r12d
    4657:	e8 84 ef ff ff       	callq  35e0 <perror@plt>
    465c:	e9 5f 02 00 00       	jmpq   48c0 <main+0x50a>
    4661:	83 3d 0c d8 00 00 00 	cmpl   $0x0,0xd80c(%rip)        # 11e74 <params+0x54>
    4668:	0f 84 be 00 00 00    	je     472c <main+0x376>
    466e:	4d 85 e4             	test   %r12,%r12
    4671:	75 13                	jne    4686 <main+0x2d0>
    4673:	48 8d 3d 5e 60 00 00 	lea    0x605e(%rip),%rdi        # a6d8 <_IO_stdin_used+0x6d8>
    467a:	31 c0                	xor    %eax,%eax
    467c:	e8 0f 23 00 00       	callq  6990 <prn>
    4681:	e9 a6 00 00 00       	jmpq   472c <main+0x376>
    4686:	48 8d 3d bc 66 00 00 	lea    0x66bc(%rip),%rdi        # ad49 <_IO_stdin_used+0xd49>
    468d:	31 c0                	xor    %eax,%eax
    468f:	e8 fc 22 00 00       	callq  6990 <prn>
    4694:	4c 8b 3d cd d7 00 00 	mov    0xd7cd(%rip),%r15        # 11e68 <params+0x48>
    469b:	41 ff 17             	callq  *(%r15)
    469e:	48 89 c3             	mov    %rax,%rbx
    46a1:	48 b8 0d d0 ef be ed 	movabs $0xddfadedbeefd00d,%rax
    46a8:	ad df 0d 
    46ab:	4c 89 e6             	mov    %r12,%rsi
    46ae:	31 c9                	xor    %ecx,%ecx
    46b0:	49 b8 2d 7f 95 4c 2d 	movabs $0x5851f42d4c957f2d,%r8
    46b7:	f4 51 58 
    46ba:	48 bf 4f 81 67 f7 7e 	movabs $0x14057b7ef767814f,%rdi
    46c1:	7b 05 14 
    46c4:	41 39 ce             	cmp    %ecx,%r14d
    46c7:	74 2c                	je     46f5 <main+0x33f>
    46c9:	31 d2                	xor    %edx,%edx
    46cb:	49 0f af c0          	imul   %r8,%rax
    46cf:	48 01 f8             	add    %rdi,%rax
    46d2:	49 89 c1             	mov    %rax,%r9
    46d5:	49 c1 e9 21          	shr    $0x21,%r9
    46d9:	44 88 0c 16          	mov    %r9b,(%rsi,%rdx,1)
    46dd:	48 83 c2 04          	add    $0x4,%rdx
    46e1:	48 81 fa 00 10 00 00 	cmp    $0x1000,%rdx
    46e8:	75 e1                	jne    46cb <main+0x315>
    46ea:	ff c1                	inc    %ecx
    46ec:	48 81 c6 00 10 00 00 	add    $0x1000,%rsi
    46f3:	eb cf                	jmp    46c4 <main+0x30e>
    46f5:	41 ff 17             	callq  *(%r15)
    46f8:	48 29 d8             	sub    %rbx,%rax
    46fb:	41 8b 4f 10          	mov    0x10(%r15),%ecx
    46ff:	31 d2                	xor    %edx,%edx
    4701:	48 8d 3d 5d 66 00 00 	lea    0x665d(%rip),%rdi        # ad65 <_IO_stdin_used+0xd65>
    4708:	48 69 c0 e8 03 00 00 	imul   $0x3e8,%rax,%rax
    470f:	48 f7 f1             	div    %rcx
    4712:	89 c0                	mov    %eax,%eax
    4714:	f3 48 0f 2a c0       	cvtsi2ss %rax,%xmm0
    4719:	b0 01                	mov    $0x1,%al
    471b:	f3 0f 5a c0          	cvtss2sd %xmm0,%xmm0
    471f:	f2 0f 5e 05 d1 68 00 	divsd  0x68d1(%rip),%xmm0        # aff8 <args_doc_str.10218+0x20>
    4726:	00 
    4727:	e8 64 22 00 00       	callq  6990 <prn>
    472c:	48 8d 3d 75 d6 00 00 	lea    0xd675(%rip),%rdi        # 11da8 <mem_ctx>
    4733:	e8 08 32 00 00       	callq  7940 <sys_stat_mem_init>
    4738:	c7 05 2e d5 00 00 00 	movl   $0x0,0xd52e(%rip)        # 11c70 <control+0x10>
    473f:	00 00 00 
    4742:	e8 ef f3 ff ff       	callq  3b36 <install_ctrlc_handler>
    4747:	31 c0                	xor    %eax,%eax
    4749:	e8 42 39 00 00       	callq  8090 <trace_marker_init>
    474e:	48 89 ee             	mov    %rbp,%rsi
    4751:	4c 89 e7             	mov    %r12,%rdi
    4754:	e8 a7 4e 00 00       	callq  9600 <perform_benchmark_mt>
    4759:	48 8d 35 c0 d6 00 00 	lea    0xd6c0(%rip),%rsi        # 11e20 <params>
    4760:	48 89 ef             	mov    %rbp,%rdi
    4763:	e8 72 f4 ff ff       	callq  3bda <print_con_report>
    4768:	48 83 3d 18 d7 00 00 	cmpq   $0x0,0xd718(%rip)        # 11e88 <params+0x68>
    476f:	00 
    4770:	74 15                	je     4787 <main+0x3d1>
    4772:	8b 15 f8 d4 00 00    	mov    0xd4f8(%rip),%edx        # 11c70 <control+0x10>
    4778:	48 8d 35 a1 d6 00 00 	lea    0xd6a1(%rip),%rsi        # 11e20 <params>
    477f:	48 89 ef             	mov    %rbp,%rdi
    4782:	e8 97 13 00 00       	callq  5b1e <print_xml_report>
    4787:	48 8b 3d d2 d4 00 00 	mov    0xd4d2(%rip),%rdi        # 11c60 <control>
    478e:	e8 1d ef ff ff       	callq  36b0 <free@plt>
    4793:	4c 89 ee             	mov    %r13,%rsi
    4796:	4c 89 e7             	mov    %r12,%rdi
    4799:	e8 62 ed ff ff       	callq  3500 <munmap@plt>
    479e:	85 c0                	test   %eax,%eax
    47a0:	74 11                	je     47b3 <main+0x3fd>
    47a2:	48 8d 3d e0 65 00 00 	lea    0x65e0(%rip),%rdi        # ad89 <_IO_stdin_used+0xd89>
    47a9:	e8 32 ee ff ff       	callq  35e0 <perror@plt>
    47ae:	e9 fb 00 00 00       	jmpq   48ae <main+0x4f8>
    47b3:	8b 35 b7 d6 00 00    	mov    0xd6b7(%rip),%esi        # 11e70 <params+0x50>
    47b9:	48 89 ef             	mov    %rbp,%rdi
    47bc:	c1 e6 0c             	shl    $0xc,%esi
    47bf:	48 63 f6             	movslq %esi,%rsi
    47c2:	e8 39 ed ff ff       	callq  3500 <munmap@plt>
    47c7:	41 89 c4             	mov    %eax,%r12d
    47ca:	85 c0                	test   %eax,%eax
    47cc:	74 11                	je     47df <main+0x429>
    47ce:	48 8d 3d ae 65 00 00 	lea    0x65ae(%rip),%rdi        # ad83 <_IO_stdin_used+0xd83>
    47d5:	e8 06 ee ff ff       	callq  35e0 <perror@plt>
    47da:	e9 cf 00 00 00       	jmpq   48ae <main+0x4f8>
    47df:	48 8d 35 1a d4 00 00 	lea    0xd41a(%rip),%rsi        # 11c00 <mem_info_after_unmap>
    47e6:	48 8d 3d bb d5 00 00 	lea    0xd5bb(%rip),%rdi        # 11da8 <mem_ctx>
    47ed:	e8 de 31 00 00       	callq  79d0 <sys_stat_mem_update>
    47f2:	48 8d 35 86 64 00 00 	lea    0x6486(%rip),%rsi        # ac7f <_IO_stdin_used+0xc7f>
    47f9:	bf 01 00 00 00       	mov    $0x1,%edi
    47fe:	31 c0                	xor    %eax,%eax
    4800:	e8 2b ec ff ff       	callq  3430 <__printf_chk@plt>
    4805:	48 8d 35 f4 d3 00 00 	lea    0xd3f4(%rip),%rsi        # 11c00 <mem_info_after_unmap>
    480c:	48 8d 3d 8d d4 00 00 	lea    0xd48d(%rip),%rdi        # 11ca0 <mem_info_after_run>
    4813:	e8 66 0b 00 00       	callq  537e <sys_stat_mem_print_delta>
    4818:	48 8d 35 78 65 00 00 	lea    0x6578(%rip),%rsi        # ad97 <_IO_stdin_used+0xd97>
    481f:	bf 01 00 00 00       	mov    $0x1,%edi
    4824:	31 c0                	xor    %eax,%eax
    4826:	e8 05 ec ff ff       	callq  3430 <__printf_chk@plt>
    482b:	48 8d 3d ce d3 00 00 	lea    0xd3ce(%rip),%rdi        # 11c00 <mem_info_after_unmap>
    4832:	e8 09 0b 00 00       	callq  5340 <sys_stat_mem_print>
    4837:	48 8b 3d 4a d6 00 00 	mov    0xd64a(%rip),%rdi        # 11e88 <params+0x68>
    483e:	48 85 ff             	test   %rdi,%rdi
    4841:	74 05                	je     4848 <main+0x492>
    4843:	e8 4a 1f 00 00       	callq  6792 <print_xml_report_post_unmap>
    4848:	48 8d 3d 59 d5 00 00 	lea    0xd559(%rip),%rdi        # 11da8 <mem_ctx>
    484f:	48 89 e5             	mov    %rsp,%rbp
    4852:	e8 79 33 00 00       	callq  7bd0 <sys_stat_mem_exit>
    4857:	31 c0                	xor    %eax,%eax
    4859:	e8 82 38 00 00       	callq  80e0 <trace_marker_exit>
    485e:	48 8d 7c 24 08       	lea    0x8(%rsp),%rdi
    4863:	e8 98 ee ff ff       	callq  3700 <sigemptyset@plt>
    4868:	31 d2                	xor    %edx,%edx
    486a:	48 89 ee             	mov    %rbp,%rsi
    486d:	bf 02 00 00 00       	mov    $0x2,%edi
    4872:	48 c7 04 24 00 00 00 	movq   $0x0,(%rsp)
    4879:	00 
    487a:	e8 91 ee ff ff       	callq  3710 <sigaction@plt>
    487f:	ff c0                	inc    %eax
    4881:	75 3d                	jne    48c0 <main+0x50a>
    4883:	48 8d 35 c6 66 00 00 	lea    0x66c6(%rip),%rsi        # af50 <__func__.10393>
    488a:	48 8d 3d 9f 5e 00 00 	lea    0x5e9f(%rip),%rdi        # a730 <_IO_stdin_used+0x730>
    4891:	31 c0                	xor    %eax,%eax
    4893:	e8 f8 20 00 00       	callq  6990 <prn>
    4898:	48 8d 3d 75 61 00 00 	lea    0x6175(%rip),%rdi        # aa14 <_IO_stdin_used+0xa14>
    489f:	e8 3c ed ff ff       	callq  35e0 <perror@plt>
    48a4:	bf 01 00 00 00       	mov    $0x1,%edi
    48a9:	e8 12 ee ff ff       	callq  36c0 <exit@plt>
    48ae:	48 8d 3d f3 d4 00 00 	lea    0xd4f3(%rip),%rdi        # 11da8 <mem_ctx>
    48b5:	41 bc 01 00 00 00    	mov    $0x1,%r12d
    48bb:	e8 10 33 00 00       	callq  7bd0 <sys_stat_mem_exit>
    48c0:	48 8b 84 24 98 00 00 	mov    0x98(%rsp),%rax
    48c7:	00 
    48c8:	64 48 33 04 25 28 00 	xor    %fs:0x28,%rax
    48cf:	00 00 
    48d1:	74 05                	je     48d8 <main+0x522>
    48d3:	e8 88 ed ff ff       	callq  3660 <__stack_chk_fail@plt>
    48d8:	48 81 c4 a8 00 00 00 	add    $0xa8,%rsp
    48df:	44 89 e0             	mov    %r12d,%eax
    48e2:	5b                   	pop    %rbx
    48e3:	5d                   	pop    %rbp
    48e4:	41 5c                	pop    %r12
    48e6:	41 5d                	pop    %r13
    48e8:	41 5e                	pop    %r14
    48ea:	41 5f                	pop    %r15
    48ec:	c3                   	retq   

00000000000048ed <__cpuid_cache_tlb_info>:
    48ed:	53                   	push   %rbx
    48ee:	31 c9                	xor    %ecx,%ecx
    48f0:	48 83 ec 20          	sub    $0x20,%rsp
    48f4:	64 48 8b 04 25 28 00 	mov    %fs:0x28,%rax
    48fb:	00 00 
    48fd:	48 89 44 24 18       	mov    %rax,0x18(%rsp)
    4902:	31 c0                	xor    %eax,%eax
    4904:	b8 02 00 00 00       	mov    $0x2,%eax
    4909:	0f a2                	cpuid  
    490b:	89 04 24             	mov    %eax,(%rsp)
    490e:	0f b6 f0             	movzbl %al,%esi
    4911:	49 89 f8             	mov    %rdi,%r8
    4914:	89 5c 24 04          	mov    %ebx,0x4(%rsp)
    4918:	89 4c 24 08          	mov    %ecx,0x8(%rsp)
    491c:	89 54 24 0c          	mov    %edx,0xc(%rsp)
    4920:	b8 01 00 00 00       	mov    $0x1,%eax
    4925:	8a 14 04             	mov    (%rsp,%rax,1),%dl
    4928:	84 d2                	test   %dl,%dl
    492a:	74 06                	je     4932 <__cpuid_cache_tlb_info+0x45>
    492c:	41 88 10             	mov    %dl,(%r8)
    492f:	49 ff c0             	inc    %r8
    4932:	48 ff c0             	inc    %rax
    4935:	48 83 f8 10          	cmp    $0x10,%rax
    4939:	75 ea                	jne    4925 <__cpuid_cache_tlb_info+0x38>
    493b:	ff ce                	dec    %esi
    493d:	74 1a                	je     4959 <__cpuid_cache_tlb_info+0x6c>
    493f:	b8 02 00 00 00       	mov    $0x2,%eax
    4944:	31 c9                	xor    %ecx,%ecx
    4946:	0f a2                	cpuid  
    4948:	89 04 24             	mov    %eax,(%rsp)
    494b:	89 5c 24 04          	mov    %ebx,0x4(%rsp)
    494f:	89 4c 24 08          	mov    %ecx,0x8(%rsp)
    4953:	89 54 24 0c          	mov    %edx,0xc(%rsp)
    4957:	eb c7                	jmp    4920 <__cpuid_cache_tlb_info+0x33>
    4959:	4c 89 c0             	mov    %r8,%rax
    495c:	48 29 f8             	sub    %rdi,%rax
    495f:	48 8b 74 24 18       	mov    0x18(%rsp),%rsi
    4964:	64 48 33 34 25 28 00 	xor    %fs:0x28,%rsi
    496b:	00 00 
    496d:	74 05                	je     4974 <__cpuid_cache_tlb_info+0x87>
    496f:	e8 ec ec ff ff       	callq  3660 <__stack_chk_fail@plt>
    4974:	48 83 c4 20          	add    $0x20,%rsp
    4978:	5b                   	pop    %rbx
    4979:	c3                   	retq   

000000000000497a <print_tlb_info>:
    497a:	f3 0f 1e fa          	endbr64 
    497e:	41 57                	push   %r15
    4980:	48 8d 3d e9 d6 00 00 	lea    0xd6e9(%rip),%rdi        # 12070 <tlb_info_buf>
    4987:	4c 8d 3d ba 7c 00 00 	lea    0x7cba(%rip),%r15        # c648 <args_doc_str.10218+0x1670>
    498e:	41 56                	push   %r14
    4990:	4c 8d 35 55 7c 00 00 	lea    0x7c55(%rip),%r14        # c5ec <args_doc_str.10218+0x1614>
    4997:	41 55                	push   %r13
    4999:	4c 8d 2d 80 7b 00 00 	lea    0x7b80(%rip),%r13        # c520 <args_doc_str.10218+0x1548>
    49a0:	41 54                	push   %r12
    49a2:	55                   	push   %rbp
    49a3:	48 8d 2d 16 7c 00 00 	lea    0x7c16(%rip),%rbp        # c5c0 <args_doc_str.10218+0x15e8>
    49aa:	53                   	push   %rbx
    49ab:	48 8d 1d be d6 00 00 	lea    0xd6be(%rip),%rbx        # 12070 <tlb_info_buf>
    49b2:	48 83 ec 18          	sub    $0x18,%rsp
    49b6:	e8 32 ff ff ff       	callq  48ed <__cpuid_cache_tlb_info>
    49bb:	41 89 c4             	mov    %eax,%r12d
    49be:	48 8d 05 ab d6 00 00 	lea    0xd6ab(%rip),%rax        # 12070 <tlb_info_buf>
    49c5:	48 89 44 24 08       	mov    %rax,0x8(%rsp)
    49ca:	89 d8                	mov    %ebx,%eax
    49cc:	2b 44 24 08          	sub    0x8(%rsp),%eax
    49d0:	41 39 c4             	cmp    %eax,%r12d
    49d3:	0f 8e e6 02 00 00    	jle    4cbf <print_tlb_info+0x345>
    49d9:	8a 03                	mov    (%rbx),%al
    49db:	3c 76                	cmp    $0x76,%al
    49dd:	77 36                	ja     4a15 <print_tlb_info+0x9b>
    49df:	3c 4e                	cmp    $0x4e,%al
    49e1:	77 0b                	ja     49ee <print_tlb_info+0x74>
    49e3:	ff c8                	dec    %eax
    49e5:	3c 0a                	cmp    $0xa,%al
    49e7:	76 1e                	jbe    4a07 <print_tlb_info+0x8d>
    49e9:	e9 c9 02 00 00       	jmpq   4cb7 <print_tlb_info+0x33d>
    49ee:	83 e8 4f             	sub    $0x4f,%eax
    49f1:	3c 27                	cmp    $0x27,%al
    49f3:	0f 87 be 02 00 00    	ja     4cb7 <print_tlb_info+0x33d>
    49f9:	0f b6 c0             	movzbl %al,%eax
    49fc:	49 63 44 85 00       	movslq 0x0(%r13,%rax,4),%rax
    4a01:	4c 01 e8             	add    %r13,%rax
    4a04:	3e ff e0             	notrack jmpq *%rax
    4a07:	0f b6 c0             	movzbl %al,%eax
    4a0a:	48 63 44 85 00       	movslq 0x0(%rbp,%rax,4),%rax
    4a0f:	48 01 e8             	add    %rbp,%rax
    4a12:	3e ff e0             	notrack jmpq *%rax
    4a15:	3c b6                	cmp    $0xb6,%al
    4a17:	77 20                	ja     4a39 <print_tlb_info+0xbf>
    4a19:	3c 9f                	cmp    $0x9f,%al
    4a1b:	0f 86 96 02 00 00    	jbe    4cb7 <print_tlb_info+0x33d>
    4a21:	83 c0 60             	add    $0x60,%eax
    4a24:	3c 16                	cmp    $0x16,%al
    4a26:	0f 87 8b 02 00 00    	ja     4cb7 <print_tlb_info+0x33d>
    4a2c:	0f b6 c0             	movzbl %al,%eax
    4a2f:	49 63 04 86          	movslq (%r14,%rax,4),%rax
    4a33:	4c 01 f0             	add    %r14,%rax
    4a36:	3e ff e0             	notrack jmpq *%rax
    4a39:	83 c0 46             	add    $0x46,%eax
    4a3c:	3c 10                	cmp    $0x10,%al
    4a3e:	0f 87 73 02 00 00    	ja     4cb7 <print_tlb_info+0x33d>
    4a44:	0f b6 c0             	movzbl %al,%eax
    4a47:	49 63 04 87          	movslq (%r15,%rax,4),%rax
    4a4b:	4c 01 f8             	add    %r15,%rax
    4a4e:	3e ff e0             	notrack jmpq *%rax
    4a51:	48 8d 3d 58 67 00 00 	lea    0x6758(%rip),%rdi        # b1b0 <args_doc_str.10218+0x1d8>
    4a58:	e8 33 ed ff ff       	callq  3790 <puts@plt>
    4a5d:	e9 55 02 00 00       	jmpq   4cb7 <print_tlb_info+0x33d>
    4a62:	48 8d 3d da 78 00 00 	lea    0x78da(%rip),%rdi        # c343 <args_doc_str.10218+0x136b>
    4a69:	e8 22 ed ff ff       	callq  3790 <puts@plt>
    4a6e:	e9 44 02 00 00       	jmpq   4cb7 <print_tlb_info+0x33d>
    4a73:	48 8d 3d 56 67 00 00 	lea    0x6756(%rip),%rdi        # b1d0 <args_doc_str.10218+0x1f8>
    4a7a:	e8 11 ed ff ff       	callq  3790 <puts@plt>
    4a7f:	e9 33 02 00 00       	jmpq   4cb7 <print_tlb_info+0x33d>
    4a84:	48 8d 3d 65 67 00 00 	lea    0x6765(%rip),%rdi        # b1f0 <args_doc_str.10218+0x218>
    4a8b:	e8 00 ed ff ff       	callq  3790 <puts@plt>
    4a90:	e9 22 02 00 00       	jmpq   4cb7 <print_tlb_info+0x33d>
    4a95:	48 8d 3d 74 67 00 00 	lea    0x6774(%rip),%rdi        # b210 <args_doc_str.10218+0x238>
    4a9c:	e8 ef ec ff ff       	callq  3790 <puts@plt>
    4aa1:	e9 11 02 00 00       	jmpq   4cb7 <print_tlb_info+0x33d>
    4aa6:	48 8d 3d 83 67 00 00 	lea    0x6783(%rip),%rdi        # b230 <args_doc_str.10218+0x258>
    4aad:	e8 de ec ff ff       	callq  3790 <puts@plt>
    4ab2:	e9 00 02 00 00       	jmpq   4cb7 <print_tlb_info+0x33d>
    4ab7:	48 8d 3d a3 78 00 00 	lea    0x78a3(%rip),%rdi        # c361 <args_doc_str.10218+0x1389>
    4abe:	e8 cd ec ff ff       	callq  3790 <puts@plt>
    4ac3:	e9 ef 01 00 00       	jmpq   4cb7 <print_tlb_info+0x33d>
    4ac8:	48 8d 3d 81 67 00 00 	lea    0x6781(%rip),%rdi        # b250 <args_doc_str.10218+0x278>
    4acf:	e8 bc ec ff ff       	callq  3790 <puts@plt>
    4ad4:	e9 de 01 00 00       	jmpq   4cb7 <print_tlb_info+0x33d>
    4ad9:	48 8d 3d 98 67 00 00 	lea    0x6798(%rip),%rdi        # b278 <args_doc_str.10218+0x2a0>
    4ae0:	e8 ab ec ff ff       	callq  3790 <puts@plt>
    4ae5:	e9 cd 01 00 00       	jmpq   4cb7 <print_tlb_info+0x33d>
    4aea:	48 8d 3d b7 67 00 00 	lea    0x67b7(%rip),%rdi        # b2a8 <args_doc_str.10218+0x2d0>
    4af1:	e8 9a ec ff ff       	callq  3790 <puts@plt>
    4af6:	e9 bc 01 00 00       	jmpq   4cb7 <print_tlb_info+0x33d>
    4afb:	48 8d 3d d6 67 00 00 	lea    0x67d6(%rip),%rdi        # b2d8 <args_doc_str.10218+0x300>
    4b02:	e8 89 ec ff ff       	callq  3790 <puts@plt>
    4b07:	e9 ab 01 00 00       	jmpq   4cb7 <print_tlb_info+0x33d>
    4b0c:	48 8d 3d ed 67 00 00 	lea    0x67ed(%rip),%rdi        # b300 <args_doc_str.10218+0x328>
    4b13:	e8 78 ec ff ff       	callq  3790 <puts@plt>
    4b18:	e9 9a 01 00 00       	jmpq   4cb7 <print_tlb_info+0x33d>
    4b1d:	48 8d 3d 04 68 00 00 	lea    0x6804(%rip),%rdi        # b328 <args_doc_str.10218+0x350>
    4b24:	e8 67 ec ff ff       	callq  3790 <puts@plt>
    4b29:	e9 89 01 00 00       	jmpq   4cb7 <print_tlb_info+0x33d>
    4b2e:	48 8d 3d 1b 68 00 00 	lea    0x681b(%rip),%rdi        # b350 <args_doc_str.10218+0x378>
    4b35:	e8 56 ec ff ff       	callq  3790 <puts@plt>
    4b3a:	e9 78 01 00 00       	jmpq   4cb7 <print_tlb_info+0x33d>
    4b3f:	48 8d 3d 2a 68 00 00 	lea    0x682a(%rip),%rdi        # b370 <args_doc_str.10218+0x398>
    4b46:	e8 45 ec ff ff       	callq  3790 <puts@plt>
    4b4b:	e9 67 01 00 00       	jmpq   4cb7 <print_tlb_info+0x33d>
    4b50:	48 8d 3d 41 68 00 00 	lea    0x6841(%rip),%rdi        # b398 <args_doc_str.10218+0x3c0>
    4b57:	e8 34 ec ff ff       	callq  3790 <puts@plt>
    4b5c:	e9 56 01 00 00       	jmpq   4cb7 <print_tlb_info+0x33d>
    4b61:	48 8d 3d 58 68 00 00 	lea    0x6858(%rip),%rdi        # b3c0 <args_doc_str.10218+0x3e8>
    4b68:	e8 23 ec ff ff       	callq  3790 <puts@plt>
    4b6d:	e9 45 01 00 00       	jmpq   4cb7 <print_tlb_info+0x33d>
    4b72:	48 8d 3d 6f 68 00 00 	lea    0x686f(%rip),%rdi        # b3e8 <args_doc_str.10218+0x410>
    4b79:	e8 12 ec ff ff       	callq  3790 <puts@plt>
    4b7e:	e9 34 01 00 00       	jmpq   4cb7 <print_tlb_info+0x33d>
    4b83:	48 8d 3d 86 68 00 00 	lea    0x6886(%rip),%rdi        # b410 <args_doc_str.10218+0x438>
    4b8a:	e8 01 ec ff ff       	callq  3790 <puts@plt>
    4b8f:	e9 23 01 00 00       	jmpq   4cb7 <print_tlb_info+0x33d>
    4b94:	48 8d 3d 95 68 00 00 	lea    0x6895(%rip),%rdi        # b430 <args_doc_str.10218+0x458>
    4b9b:	e8 f0 eb ff ff       	callq  3790 <puts@plt>
    4ba0:	e9 12 01 00 00       	jmpq   4cb7 <print_tlb_info+0x33d>
    4ba5:	48 8d 3d a4 68 00 00 	lea    0x68a4(%rip),%rdi        # b450 <args_doc_str.10218+0x478>
    4bac:	e8 df eb ff ff       	callq  3790 <puts@plt>
    4bb1:	e9 01 01 00 00       	jmpq   4cb7 <print_tlb_info+0x33d>
    4bb6:	48 8d 3d b3 68 00 00 	lea    0x68b3(%rip),%rdi        # b470 <args_doc_str.10218+0x498>
    4bbd:	e8 ce eb ff ff       	callq  3790 <puts@plt>
    4bc2:	e9 f0 00 00 00       	jmpq   4cb7 <print_tlb_info+0x33d>
    4bc7:	48 8d 3d ca 68 00 00 	lea    0x68ca(%rip),%rdi        # b498 <args_doc_str.10218+0x4c0>
    4bce:	e8 bd eb ff ff       	callq  3790 <puts@plt>
    4bd3:	e9 df 00 00 00       	jmpq   4cb7 <print_tlb_info+0x33d>
    4bd8:	48 8d 3d e1 68 00 00 	lea    0x68e1(%rip),%rdi        # b4c0 <args_doc_str.10218+0x4e8>
    4bdf:	e8 ac eb ff ff       	callq  3790 <puts@plt>
    4be4:	e9 ce 00 00 00       	jmpq   4cb7 <print_tlb_info+0x33d>
    4be9:	48 8d 3d f0 68 00 00 	lea    0x68f0(%rip),%rdi        # b4e0 <args_doc_str.10218+0x508>
    4bf0:	e8 9b eb ff ff       	callq  3790 <puts@plt>
    4bf5:	e9 bd 00 00 00       	jmpq   4cb7 <print_tlb_info+0x33d>
    4bfa:	48 8d 3d 07 69 00 00 	lea    0x6907(%rip),%rdi        # b508 <args_doc_str.10218+0x530>
    4c01:	e8 8a eb ff ff       	callq  3790 <puts@plt>
    4c06:	e9 ac 00 00 00       	jmpq   4cb7 <print_tlb_info+0x33d>
    4c0b:	48 8d 3d 16 69 00 00 	lea    0x6916(%rip),%rdi        # b528 <args_doc_str.10218+0x550>
    4c12:	e8 79 eb ff ff       	callq  3790 <puts@plt>
    4c17:	e9 9b 00 00 00       	jmpq   4cb7 <print_tlb_info+0x33d>
    4c1c:	48 8d 3d 2d 69 00 00 	lea    0x692d(%rip),%rdi        # b550 <args_doc_str.10218+0x578>
    4c23:	e8 68 eb ff ff       	callq  3790 <puts@plt>
    4c28:	e9 8a 00 00 00       	jmpq   4cb7 <print_tlb_info+0x33d>
    4c2d:	48 8d 3d 5c 69 00 00 	lea    0x695c(%rip),%rdi        # b590 <args_doc_str.10218+0x5b8>
    4c34:	e8 57 eb ff ff       	callq  3790 <puts@plt>
    4c39:	eb 7c                	jmp    4cb7 <print_tlb_info+0x33d>
    4c3b:	48 8d 3d 6e 69 00 00 	lea    0x696e(%rip),%rdi        # b5b0 <args_doc_str.10218+0x5d8>
    4c42:	e8 49 eb ff ff       	callq  3790 <puts@plt>
    4c47:	eb 6e                	jmp    4cb7 <print_tlb_info+0x33d>
    4c49:	48 8d 3d 88 69 00 00 	lea    0x6988(%rip),%rdi        # b5d8 <args_doc_str.10218+0x600>
    4c50:	e8 3b eb ff ff       	callq  3790 <puts@plt>
    4c55:	eb 60                	jmp    4cb7 <print_tlb_info+0x33d>
    4c57:	48 8d 3d a2 69 00 00 	lea    0x69a2(%rip),%rdi        # b600 <args_doc_str.10218+0x628>
    4c5e:	e8 2d eb ff ff       	callq  3790 <puts@plt>
    4c63:	eb 52                	jmp    4cb7 <print_tlb_info+0x33d>
    4c65:	48 8d 3d bc 69 00 00 	lea    0x69bc(%rip),%rdi        # b628 <args_doc_str.10218+0x650>
    4c6c:	e8 1f eb ff ff       	callq  3790 <puts@plt>
    4c71:	eb 44                	jmp    4cb7 <print_tlb_info+0x33d>
    4c73:	48 8d 3d d6 69 00 00 	lea    0x69d6(%rip),%rdi        # b650 <args_doc_str.10218+0x678>
    4c7a:	e8 11 eb ff ff       	callq  3790 <puts@plt>
    4c7f:	eb 36                	jmp    4cb7 <print_tlb_info+0x33d>
    4c81:	48 8d 3d f0 69 00 00 	lea    0x69f0(%rip),%rdi        # b678 <args_doc_str.10218+0x6a0>
    4c88:	e8 03 eb ff ff       	callq  3790 <puts@plt>
    4c8d:	eb 28                	jmp    4cb7 <print_tlb_info+0x33d>
    4c8f:	48 8d 3d 22 6a 00 00 	lea    0x6a22(%rip),%rdi        # b6b8 <args_doc_str.10218+0x6e0>
    4c96:	e8 f5 ea ff ff       	callq  3790 <puts@plt>
    4c9b:	eb 1a                	jmp    4cb7 <print_tlb_info+0x33d>
    4c9d:	48 8d 3d 3c 6a 00 00 	lea    0x6a3c(%rip),%rdi        # b6e0 <args_doc_str.10218+0x708>
    4ca4:	e8 e7 ea ff ff       	callq  3790 <puts@plt>
    4ca9:	eb 0c                	jmp    4cb7 <print_tlb_info+0x33d>
    4cab:	48 8d 3d 8e 6a 00 00 	lea    0x6a8e(%rip),%rdi        # b740 <args_doc_str.10218+0x768>
    4cb2:	e8 d9 ea ff ff       	callq  3790 <puts@plt>
    4cb7:	48 ff c3             	inc    %rbx
    4cba:	e9 ff fc ff ff       	jmpq   49be <print_tlb_info+0x44>
    4cbf:	44 89 25 a2 d3 00 00 	mov    %r12d,0xd3a2(%rip)        # 12068 <gl_tlb_info_buf_len>
    4cc6:	48 83 c4 18          	add    $0x18,%rsp
    4cca:	44 89 e0             	mov    %r12d,%eax
    4ccd:	5b                   	pop    %rbx
    4cce:	5d                   	pop    %rbp
    4ccf:	41 5c                	pop    %r12
    4cd1:	41 5d                	pop    %r13
    4cd3:	41 5e                	pop    %r14
    4cd5:	41 5f                	pop    %r15
    4cd7:	c3                   	retq   

0000000000004cd8 <print_cache_info>:
    4cd8:	f3 0f 1e fa          	endbr64 
    4cdc:	41 57                	push   %r15
    4cde:	4c 8d 3d 8b d3 00 00 	lea    0xd38b(%rip),%r15        # 12070 <tlb_info_buf>
    4ce5:	41 56                	push   %r14
    4ce7:	4c 8d 35 a6 7b 00 00 	lea    0x7ba6(%rip),%r14        # c894 <args_doc_str.10218+0x18bc>
    4cee:	41 55                	push   %r13
    4cf0:	4c 8d 2d 95 79 00 00 	lea    0x7995(%rip),%r13        # c68c <args_doc_str.10218+0x16b4>
    4cf7:	41 54                	push   %r12
    4cf9:	45 31 e4             	xor    %r12d,%r12d
    4cfc:	55                   	push   %rbp
    4cfd:	31 ed                	xor    %ebp,%ebp
    4cff:	53                   	push   %rbx
    4d00:	48 83 ec 38          	sub    $0x38,%rsp
    4d04:	64 48 8b 04 25 28 00 	mov    %fs:0x28,%rax
    4d0b:	00 00 
    4d0d:	48 89 44 24 28       	mov    %rax,0x28(%rsp)
    4d12:	31 c0                	xor    %eax,%eax
    4d14:	48 8d 7c 24 10       	lea    0x10(%rsp),%rdi
    4d19:	e8 cf fb ff ff       	callq  48ed <__cpuid_cache_tlb_info>
    4d1e:	89 c3                	mov    %eax,%ebx
    4d20:	39 eb                	cmp    %ebp,%ebx
    4d22:	0f 8e 7c 04 00 00    	jle    51a4 <print_cache_info+0x4cc>
    4d28:	41 8a 04 2f          	mov    (%r15,%rbp,1),%al
    4d2c:	3c 87                	cmp    $0x87,%al
    4d2e:	77 21                	ja     4d51 <print_cache_info+0x79>
    4d30:	3c 05                	cmp    $0x5,%al
    4d32:	0f 86 64 04 00 00    	jbe    519c <print_cache_info+0x4c4>
    4d38:	83 e8 06             	sub    $0x6,%eax
    4d3b:	3c 81                	cmp    $0x81,%al
    4d3d:	0f 87 59 04 00 00    	ja     519c <print_cache_info+0x4c4>
    4d43:	0f b6 c0             	movzbl %al,%eax
    4d46:	49 63 44 85 00       	movslq 0x0(%r13,%rax,4),%rax
    4d4b:	4c 01 e8             	add    %r13,%rax
    4d4e:	3e ff e0             	notrack jmpq *%rax
    4d51:	3c cf                	cmp    $0xcf,%al
    4d53:	0f 86 43 04 00 00    	jbe    519c <print_cache_info+0x4c4>
    4d59:	8d 50 30             	lea    0x30(%rax),%edx
    4d5c:	3c d0                	cmp    $0xd0,%al
    4d5e:	0f 82 38 04 00 00    	jb     519c <print_cache_info+0x4c4>
    4d64:	0f b6 c2             	movzbl %dl,%eax
    4d67:	49 63 04 86          	movslq (%r14,%rax,4),%rax
    4d6b:	4c 01 f0             	add    %r14,%rax
    4d6e:	3e ff e0             	notrack jmpq *%rax
    4d71:	41 bc 01 00 00 00    	mov    $0x1,%r12d
    4d77:	e9 20 04 00 00       	jmpq   519c <print_cache_info+0x4c4>
    4d7c:	48 8d 3d f5 69 00 00 	lea    0x69f5(%rip),%rdi        # b778 <args_doc_str.10218+0x7a0>
    4d83:	e8 08 ea ff ff       	callq  3790 <puts@plt>
    4d88:	e9 0f 04 00 00       	jmpq   519c <print_cache_info+0x4c4>
    4d8d:	48 8d 3d 0c 6a 00 00 	lea    0x6a0c(%rip),%rdi        # b7a0 <args_doc_str.10218+0x7c8>
    4d94:	e8 f7 e9 ff ff       	callq  3790 <puts@plt>
    4d99:	e9 fe 03 00 00       	jmpq   519c <print_cache_info+0x4c4>
    4d9e:	48 8d 3d 23 6a 00 00 	lea    0x6a23(%rip),%rdi        # b7c8 <args_doc_str.10218+0x7f0>
    4da5:	e8 e6 e9 ff ff       	callq  3790 <puts@plt>
    4daa:	e9 ed 03 00 00       	jmpq   519c <print_cache_info+0x4c4>
    4daf:	48 8d 3d 3a 6a 00 00 	lea    0x6a3a(%rip),%rdi        # b7f0 <args_doc_str.10218+0x818>
    4db6:	e8 d5 e9 ff ff       	callq  3790 <puts@plt>
    4dbb:	e9 dc 03 00 00       	jmpq   519c <print_cache_info+0x4c4>
    4dc0:	48 8d 3d 51 6a 00 00 	lea    0x6a51(%rip),%rdi        # b818 <args_doc_str.10218+0x840>
    4dc7:	e8 c4 e9 ff ff       	callq  3790 <puts@plt>
    4dcc:	e9 cb 03 00 00       	jmpq   519c <print_cache_info+0x4c4>
    4dd1:	48 8d 3d 90 6a 00 00 	lea    0x6a90(%rip),%rdi        # b868 <args_doc_str.10218+0x890>
    4dd8:	e8 b3 e9 ff ff       	callq  3790 <puts@plt>
    4ddd:	e9 ba 03 00 00       	jmpq   519c <print_cache_info+0x4c4>
    4de2:	48 8d 3d a7 6a 00 00 	lea    0x6aa7(%rip),%rdi        # b890 <args_doc_str.10218+0x8b8>
    4de9:	e8 a2 e9 ff ff       	callq  3790 <puts@plt>
    4dee:	e9 a9 03 00 00       	jmpq   519c <print_cache_info+0x4c4>
    4df3:	48 8d 3d be 6a 00 00 	lea    0x6abe(%rip),%rdi        # b8b8 <args_doc_str.10218+0x8e0>
    4dfa:	e8 91 e9 ff ff       	callq  3790 <puts@plt>
    4dff:	e9 98 03 00 00       	jmpq   519c <print_cache_info+0x4c4>
    4e04:	48 8d 3d d5 6a 00 00 	lea    0x6ad5(%rip),%rdi        # b8e0 <args_doc_str.10218+0x908>
    4e0b:	e8 80 e9 ff ff       	callq  3790 <puts@plt>
    4e10:	e9 87 03 00 00       	jmpq   519c <print_cache_info+0x4c4>
    4e15:	48 8d 3d fc 6a 00 00 	lea    0x6afc(%rip),%rdi        # b918 <args_doc_str.10218+0x940>
    4e1c:	e8 6f e9 ff ff       	callq  3790 <puts@plt>
    4e21:	e9 76 03 00 00       	jmpq   519c <print_cache_info+0x4c4>
    4e26:	48 8d 3d 23 6b 00 00 	lea    0x6b23(%rip),%rdi        # b950 <args_doc_str.10218+0x978>
    4e2d:	e8 5e e9 ff ff       	callq  3790 <puts@plt>
    4e32:	e9 65 03 00 00       	jmpq   519c <print_cache_info+0x4c4>
    4e37:	48 8d 3d 3a 6b 00 00 	lea    0x6b3a(%rip),%rdi        # b978 <args_doc_str.10218+0x9a0>
    4e3e:	e8 4d e9 ff ff       	callq  3790 <puts@plt>
    4e43:	e9 54 03 00 00       	jmpq   519c <print_cache_info+0x4c4>
    4e48:	48 8d 3d 61 6b 00 00 	lea    0x6b61(%rip),%rdi        # b9b0 <args_doc_str.10218+0x9d8>
    4e4f:	e8 3c e9 ff ff       	callq  3790 <puts@plt>
    4e54:	e9 43 03 00 00       	jmpq   519c <print_cache_info+0x4c4>
    4e59:	48 8d 3d 88 6b 00 00 	lea    0x6b88(%rip),%rdi        # b9e8 <args_doc_str.10218+0xa10>
    4e60:	e8 2b e9 ff ff       	callq  3790 <puts@plt>
    4e65:	e9 32 03 00 00       	jmpq   519c <print_cache_info+0x4c4>
    4e6a:	48 8d 3d 9f 6b 00 00 	lea    0x6b9f(%rip),%rdi        # ba10 <args_doc_str.10218+0xa38>
    4e71:	e8 1a e9 ff ff       	callq  3790 <puts@plt>
    4e76:	e9 21 03 00 00       	jmpq   519c <print_cache_info+0x4c4>
    4e7b:	48 8d 3d b6 6b 00 00 	lea    0x6bb6(%rip),%rdi        # ba38 <args_doc_str.10218+0xa60>
    4e82:	e8 09 e9 ff ff       	callq  3790 <puts@plt>
    4e87:	e9 10 03 00 00       	jmpq   519c <print_cache_info+0x4c4>
    4e8c:	48 8d 3d cd 6b 00 00 	lea    0x6bcd(%rip),%rdi        # ba60 <args_doc_str.10218+0xa88>
    4e93:	e8 f8 e8 ff ff       	callq  3790 <puts@plt>
    4e98:	e9 ff 02 00 00       	jmpq   519c <print_cache_info+0x4c4>
    4e9d:	48 8d 3d e4 6b 00 00 	lea    0x6be4(%rip),%rdi        # ba88 <args_doc_str.10218+0xab0>
    4ea4:	e8 e7 e8 ff ff       	callq  3790 <puts@plt>
    4ea9:	e9 ee 02 00 00       	jmpq   519c <print_cache_info+0x4c4>
    4eae:	48 8d 3d fb 6b 00 00 	lea    0x6bfb(%rip),%rdi        # bab0 <args_doc_str.10218+0xad8>
    4eb5:	e8 d6 e8 ff ff       	callq  3790 <puts@plt>
    4eba:	e9 dd 02 00 00       	jmpq   519c <print_cache_info+0x4c4>
    4ebf:	48 8d 3d 12 6c 00 00 	lea    0x6c12(%rip),%rdi        # bad8 <args_doc_str.10218+0xb00>
    4ec6:	e8 c5 e8 ff ff       	callq  3790 <puts@plt>
    4ecb:	e9 cc 02 00 00       	jmpq   519c <print_cache_info+0x4c4>
    4ed0:	48 8d 3d 21 6c 00 00 	lea    0x6c21(%rip),%rdi        # baf8 <args_doc_str.10218+0xb20>
    4ed7:	e8 b4 e8 ff ff       	callq  3790 <puts@plt>
    4edc:	e9 bb 02 00 00       	jmpq   519c <print_cache_info+0x4c4>
    4ee1:	48 8d 3d 30 6c 00 00 	lea    0x6c30(%rip),%rdi        # bb18 <args_doc_str.10218+0xb40>
    4ee8:	e8 a3 e8 ff ff       	callq  3790 <puts@plt>
    4eed:	e9 aa 02 00 00       	jmpq   519c <print_cache_info+0x4c4>
    4ef2:	48 8d 3d 3f 6c 00 00 	lea    0x6c3f(%rip),%rdi        # bb38 <args_doc_str.10218+0xb60>
    4ef9:	e8 92 e8 ff ff       	callq  3790 <puts@plt>
    4efe:	e9 99 02 00 00       	jmpq   519c <print_cache_info+0x4c4>
    4f03:	48 8d 3d 4e 6c 00 00 	lea    0x6c4e(%rip),%rdi        # bb58 <args_doc_str.10218+0xb80>
    4f0a:	e8 81 e8 ff ff       	callq  3790 <puts@plt>
    4f0f:	e9 88 02 00 00       	jmpq   519c <print_cache_info+0x4c4>
    4f14:	48 8d 3d 65 6c 00 00 	lea    0x6c65(%rip),%rdi        # bb80 <args_doc_str.10218+0xba8>
    4f1b:	e8 70 e8 ff ff       	callq  3790 <puts@plt>
    4f20:	e9 77 02 00 00       	jmpq   519c <print_cache_info+0x4c4>
    4f25:	48 8d 3d cc 6c 00 00 	lea    0x6ccc(%rip),%rdi        # bbf8 <args_doc_str.10218+0xc20>
    4f2c:	e8 5f e8 ff ff       	callq  3790 <puts@plt>
    4f31:	e9 66 02 00 00       	jmpq   519c <print_cache_info+0x4c4>
    4f36:	48 8d 3d e3 6c 00 00 	lea    0x6ce3(%rip),%rdi        # bc20 <args_doc_str.10218+0xc48>
    4f3d:	e8 4e e8 ff ff       	callq  3790 <puts@plt>
    4f42:	e9 55 02 00 00       	jmpq   519c <print_cache_info+0x4c4>
    4f47:	48 8d 3d fa 6c 00 00 	lea    0x6cfa(%rip),%rdi        # bc48 <args_doc_str.10218+0xc70>
    4f4e:	e8 3d e8 ff ff       	callq  3790 <puts@plt>
    4f53:	e9 44 02 00 00       	jmpq   519c <print_cache_info+0x4c4>
    4f58:	48 8d 3d 11 6d 00 00 	lea    0x6d11(%rip),%rdi        # bc70 <args_doc_str.10218+0xc98>
    4f5f:	e8 2c e8 ff ff       	callq  3790 <puts@plt>
    4f64:	e9 33 02 00 00       	jmpq   519c <print_cache_info+0x4c4>
    4f69:	48 8d 3d 28 6d 00 00 	lea    0x6d28(%rip),%rdi        # bc98 <args_doc_str.10218+0xcc0>
    4f70:	e8 1b e8 ff ff       	callq  3790 <puts@plt>
    4f75:	e9 22 02 00 00       	jmpq   519c <print_cache_info+0x4c4>
    4f7a:	48 8d 3d bf 68 00 00 	lea    0x68bf(%rip),%rdi        # b840 <args_doc_str.10218+0x868>
    4f81:	e8 0a e8 ff ff       	callq  3790 <puts@plt>
    4f86:	e9 11 02 00 00       	jmpq   519c <print_cache_info+0x4c4>
    4f8b:	48 8d 3d 2e 6d 00 00 	lea    0x6d2e(%rip),%rdi        # bcc0 <args_doc_str.10218+0xce8>
    4f92:	e8 f9 e7 ff ff       	callq  3790 <puts@plt>
    4f97:	e9 00 02 00 00       	jmpq   519c <print_cache_info+0x4c4>
    4f9c:	48 8d 3d d7 73 00 00 	lea    0x73d7(%rip),%rdi        # c37a <args_doc_str.10218+0x13a2>
    4fa3:	e8 e8 e7 ff ff       	callq  3790 <puts@plt>
    4fa8:	e9 ef 01 00 00       	jmpq   519c <print_cache_info+0x4c4>
    4fad:	48 8d 3d dd 73 00 00 	lea    0x73dd(%rip),%rdi        # c391 <args_doc_str.10218+0x13b9>
    4fb4:	e8 d7 e7 ff ff       	callq  3790 <puts@plt>
    4fb9:	e9 de 01 00 00       	jmpq   519c <print_cache_info+0x4c4>
    4fbe:	48 8d 3d e3 73 00 00 	lea    0x73e3(%rip),%rdi        # c3a8 <args_doc_str.10218+0x13d0>
    4fc5:	e8 c6 e7 ff ff       	callq  3790 <puts@plt>
    4fca:	e9 cd 01 00 00       	jmpq   519c <print_cache_info+0x4c4>
    4fcf:	48 8d 3d 12 6d 00 00 	lea    0x6d12(%rip),%rdi        # bce8 <args_doc_str.10218+0xd10>
    4fd6:	e8 b5 e7 ff ff       	callq  3790 <puts@plt>
    4fdb:	e9 bc 01 00 00       	jmpq   519c <print_cache_info+0x4c4>
    4fe0:	48 8d 3d 21 6d 00 00 	lea    0x6d21(%rip),%rdi        # bd08 <args_doc_str.10218+0xd30>
    4fe7:	e8 a4 e7 ff ff       	callq  3790 <puts@plt>
    4fec:	e9 ab 01 00 00       	jmpq   519c <print_cache_info+0x4c4>
    4ff1:	48 8d 3d 40 6d 00 00 	lea    0x6d40(%rip),%rdi        # bd38 <args_doc_str.10218+0xd60>
    4ff8:	e8 93 e7 ff ff       	callq  3790 <puts@plt>
    4ffd:	e9 9a 01 00 00       	jmpq   519c <print_cache_info+0x4c4>
    5002:	48 8d 3d 5f 6d 00 00 	lea    0x6d5f(%rip),%rdi        # bd68 <args_doc_str.10218+0xd90>
    5009:	e8 82 e7 ff ff       	callq  3790 <puts@plt>
    500e:	e9 89 01 00 00       	jmpq   519c <print_cache_info+0x4c4>
    5013:	48 8d 3d 7e 6d 00 00 	lea    0x6d7e(%rip),%rdi        # bd98 <args_doc_str.10218+0xdc0>
    501a:	e8 71 e7 ff ff       	callq  3790 <puts@plt>
    501f:	e9 78 01 00 00       	jmpq   519c <print_cache_info+0x4c4>
    5024:	48 8d 3d 9d 6d 00 00 	lea    0x6d9d(%rip),%rdi        # bdc8 <args_doc_str.10218+0xdf0>
    502b:	e8 60 e7 ff ff       	callq  3790 <puts@plt>
    5030:	e9 67 01 00 00       	jmpq   519c <print_cache_info+0x4c4>
    5035:	48 8d 3d ac 6d 00 00 	lea    0x6dac(%rip),%rdi        # bde8 <args_doc_str.10218+0xe10>
    503c:	e8 4f e7 ff ff       	callq  3790 <puts@plt>
    5041:	e9 56 01 00 00       	jmpq   519c <print_cache_info+0x4c4>
    5046:	48 8d 3d c3 6d 00 00 	lea    0x6dc3(%rip),%rdi        # be10 <args_doc_str.10218+0xe38>
    504d:	e8 3e e7 ff ff       	callq  3790 <puts@plt>
    5052:	e9 45 01 00 00       	jmpq   519c <print_cache_info+0x4c4>
    5057:	48 8d 3d da 6d 00 00 	lea    0x6dda(%rip),%rdi        # be38 <args_doc_str.10218+0xe60>
    505e:	e8 2d e7 ff ff       	callq  3790 <puts@plt>
    5063:	e9 34 01 00 00       	jmpq   519c <print_cache_info+0x4c4>
    5068:	48 8d 3d f1 6d 00 00 	lea    0x6df1(%rip),%rdi        # be60 <args_doc_str.10218+0xe88>
    506f:	e8 1c e7 ff ff       	callq  3790 <puts@plt>
    5074:	e9 23 01 00 00       	jmpq   519c <print_cache_info+0x4c4>
    5079:	48 8d 3d 08 6e 00 00 	lea    0x6e08(%rip),%rdi        # be88 <args_doc_str.10218+0xeb0>
    5080:	e8 0b e7 ff ff       	callq  3790 <puts@plt>
    5085:	e9 12 01 00 00       	jmpq   519c <print_cache_info+0x4c4>
    508a:	48 8d 3d 17 6e 00 00 	lea    0x6e17(%rip),%rdi        # bea8 <args_doc_str.10218+0xed0>
    5091:	e8 fa e6 ff ff       	callq  3790 <puts@plt>
    5096:	e9 01 01 00 00       	jmpq   519c <print_cache_info+0x4c4>
    509b:	48 8d 3d 26 6e 00 00 	lea    0x6e26(%rip),%rdi        # bec8 <args_doc_str.10218+0xef0>
    50a2:	e8 e9 e6 ff ff       	callq  3790 <puts@plt>
    50a7:	e9 f0 00 00 00       	jmpq   519c <print_cache_info+0x4c4>
    50ac:	48 8d 3d 3d 6e 00 00 	lea    0x6e3d(%rip),%rdi        # bef0 <args_doc_str.10218+0xf18>
    50b3:	e8 d8 e6 ff ff       	callq  3790 <puts@plt>
    50b8:	e9 df 00 00 00       	jmpq   519c <print_cache_info+0x4c4>
    50bd:	48 8d 3d 4c 6e 00 00 	lea    0x6e4c(%rip),%rdi        # bf10 <args_doc_str.10218+0xf38>
    50c4:	e8 c7 e6 ff ff       	callq  3790 <puts@plt>
    50c9:	e9 ce 00 00 00       	jmpq   519c <print_cache_info+0x4c4>
    50ce:	48 8d 3d 63 6e 00 00 	lea    0x6e63(%rip),%rdi        # bf38 <args_doc_str.10218+0xf60>
    50d5:	e8 b6 e6 ff ff       	callq  3790 <puts@plt>
    50da:	e9 bd 00 00 00       	jmpq   519c <print_cache_info+0x4c4>
    50df:	48 8d 3d 72 6e 00 00 	lea    0x6e72(%rip),%rdi        # bf58 <args_doc_str.10218+0xf80>
    50e6:	e8 a5 e6 ff ff       	callq  3790 <puts@plt>
    50eb:	e9 ac 00 00 00       	jmpq   519c <print_cache_info+0x4c4>
    50f0:	48 8d 3d 81 6e 00 00 	lea    0x6e81(%rip),%rdi        # bf78 <args_doc_str.10218+0xfa0>
    50f7:	e8 94 e6 ff ff       	callq  3790 <puts@plt>
    50fc:	e9 9b 00 00 00       	jmpq   519c <print_cache_info+0x4c4>
    5101:	48 8d 3d 90 6e 00 00 	lea    0x6e90(%rip),%rdi        # bf98 <args_doc_str.10218+0xfc0>
    5108:	e8 83 e6 ff ff       	callq  3790 <puts@plt>
    510d:	e9 8a 00 00 00       	jmpq   519c <print_cache_info+0x4c4>
    5112:	48 8d 3d 9f 6e 00 00 	lea    0x6e9f(%rip),%rdi        # bfb8 <args_doc_str.10218+0xfe0>
    5119:	e8 72 e6 ff ff       	callq  3790 <puts@plt>
    511e:	eb 7c                	jmp    519c <print_cache_info+0x4c4>
    5120:	48 8d 3d b1 6e 00 00 	lea    0x6eb1(%rip),%rdi        # bfd8 <args_doc_str.10218+0x1000>
    5127:	e8 64 e6 ff ff       	callq  3790 <puts@plt>
    512c:	eb 6e                	jmp    519c <print_cache_info+0x4c4>
    512e:	48 8d 3d cb 6e 00 00 	lea    0x6ecb(%rip),%rdi        # c000 <args_doc_str.10218+0x1028>
    5135:	e8 56 e6 ff ff       	callq  3790 <puts@plt>
    513a:	eb 60                	jmp    519c <print_cache_info+0x4c4>
    513c:	48 8d 3d 65 6a 00 00 	lea    0x6a65(%rip),%rdi        # bba8 <args_doc_str.10218+0xbd0>
    5143:	e8 48 e6 ff ff       	callq  3790 <puts@plt>
    5148:	eb 52                	jmp    519c <print_cache_info+0x4c4>
    514a:	48 8d 3d d7 6e 00 00 	lea    0x6ed7(%rip),%rdi        # c028 <args_doc_str.10218+0x1050>
    5151:	e8 3a e6 ff ff       	callq  3790 <puts@plt>
    5156:	eb 44                	jmp    519c <print_cache_info+0x4c4>
    5158:	48 8d 3d f1 6e 00 00 	lea    0x6ef1(%rip),%rdi        # c050 <args_doc_str.10218+0x1078>
    515f:	e8 2c e6 ff ff       	callq  3790 <puts@plt>
    5164:	eb 36                	jmp    519c <print_cache_info+0x4c4>
    5166:	48 8d 3d 63 6a 00 00 	lea    0x6a63(%rip),%rdi        # bbd0 <args_doc_str.10218+0xbf8>
    516d:	e8 1e e6 ff ff       	callq  3790 <puts@plt>
    5172:	eb 28                	jmp    519c <print_cache_info+0x4c4>
    5174:	48 8d 3d fd 6e 00 00 	lea    0x6efd(%rip),%rdi        # c078 <args_doc_str.10218+0x10a0>
    517b:	e8 10 e6 ff ff       	callq  3790 <puts@plt>
    5180:	eb 1a                	jmp    519c <print_cache_info+0x4c4>
    5182:	48 8d 3d 17 6f 00 00 	lea    0x6f17(%rip),%rdi        # c0a0 <args_doc_str.10218+0x10c8>
    5189:	e8 02 e6 ff ff       	callq  3790 <puts@plt>
    518e:	eb 0c                	jmp    519c <print_cache_info+0x4c4>
    5190:	48 8d 3d 31 6f 00 00 	lea    0x6f31(%rip),%rdi        # c0c8 <args_doc_str.10218+0x10f0>
    5197:	e8 f4 e5 ff ff       	callq  3790 <puts@plt>
    519c:	48 ff c5             	inc    %rbp
    519f:	e9 7c fb ff ff       	jmpq   4d20 <print_cache_info+0x48>
    51a4:	45 85 e4             	test   %r12d,%r12d
    51a7:	0f 84 5c 01 00 00    	je     5309 <print_cache_info+0x631>
    51ad:	4c 8d 05 0c cf 00 00 	lea    0xcf0c(%rip),%r8        # 120c0 <cash>
    51b4:	b9 20 00 00 00       	mov    $0x20,%ecx
    51b9:	31 c0                	xor    %eax,%eax
    51bb:	45 31 e4             	xor    %r12d,%r12d
    51be:	4c 89 c7             	mov    %r8,%rdi
    51c1:	4c 89 c5             	mov    %r8,%rbp
    51c4:	4c 89 c6             	mov    %r8,%rsi
    51c7:	f3 ab                	rep stos %eax,%es:(%rdi)
    51c9:	bf 04 00 00 00       	mov    $0x4,%edi
    51ce:	89 f8                	mov    %edi,%eax
    51d0:	44 89 e1             	mov    %r12d,%ecx
    51d3:	0f a2                	cpuid  
    51d5:	89 54 24 0c          	mov    %edx,0xc(%rsp)
    51d9:	89 c2                	mov    %eax,%edx
    51db:	89 5c 24 04          	mov    %ebx,0x4(%rsp)
    51df:	83 e2 1f             	and    $0x1f,%edx
    51e2:	74 4a                	je     522e <print_cache_info+0x556>
    51e4:	c1 e8 05             	shr    $0x5,%eax
    51e7:	c1 eb 0c             	shr    $0xc,%ebx
    51ea:	ff c1                	inc    %ecx
    51ec:	41 ff c4             	inc    %r12d
    51ef:	83 e0 07             	and    $0x7,%eax
    51f2:	66 81 e3 ff 03       	and    $0x3ff,%bx
    51f7:	89 56 0c             	mov    %edx,0xc(%rsi)
    51fa:	48 83 c6 10          	add    $0x10,%rsi
    51fe:	66 89 46 fa          	mov    %ax,-0x6(%rsi)
    5202:	8b 44 24 04          	mov    0x4(%rsp),%eax
    5206:	ff c3                	inc    %ebx
    5208:	89 4e f0             	mov    %ecx,-0x10(%rsi)
    520b:	66 25 ff 0f          	and    $0xfff,%ax
    520f:	66 89 5e f6          	mov    %bx,-0xa(%rsi)
    5213:	ff c0                	inc    %eax
    5215:	66 89 46 f4          	mov    %ax,-0xc(%rsi)
    5219:	66 8b 44 24 06       	mov    0x6(%rsp),%ax
    521e:	66 c1 e8 06          	shr    $0x6,%ax
    5222:	ff c0                	inc    %eax
    5224:	66 89 46 f8          	mov    %ax,-0x8(%rsi)
    5228:	41 83 fc 08          	cmp    $0x8,%r12d
    522c:	75 a0                	jne    51ce <print_cache_info+0x4f6>
    522e:	49 63 dc             	movslq %r12d,%rbx
    5231:	4c 8d 2d 8f 71 00 00 	lea    0x718f(%rip),%r13        # c3c7 <args_doc_str.10218+0x13ef>
    5238:	48 c1 e3 04          	shl    $0x4,%rbx
    523c:	4c 01 c3             	add    %r8,%rbx
    523f:	48 39 eb             	cmp    %rbp,%rbx
    5242:	0f 84 ba 00 00 00    	je     5302 <print_cache_info+0x62a>
    5248:	8b 45 0c             	mov    0xc(%rbp),%eax
    524b:	83 f8 02             	cmp    $0x2,%eax
    524e:	74 1e                	je     526e <print_cache_info+0x596>
    5250:	83 f8 03             	cmp    $0x3,%eax
    5253:	74 2a                	je     527f <print_cache_info+0x5a7>
    5255:	ff c8                	dec    %eax
    5257:	75 39                	jne    5292 <print_cache_info+0x5ba>
    5259:	48 8d 35 5f 71 00 00 	lea    0x715f(%rip),%rsi        # c3bf <args_doc_str.10218+0x13e7>
    5260:	bf 01 00 00 00       	mov    $0x1,%edi
    5265:	31 c0                	xor    %eax,%eax
    5267:	e8 c4 e1 ff ff       	callq  3430 <__printf_chk@plt>
    526c:	eb 24                	jmp    5292 <print_cache_info+0x5ba>
    526e:	4c 89 ee             	mov    %r13,%rsi
    5271:	bf 01 00 00 00       	mov    $0x1,%edi
    5276:	31 c0                	xor    %eax,%eax
    5278:	e8 b3 e1 ff ff       	callq  3430 <__printf_chk@plt>
    527d:	eb 13                	jmp    5292 <print_cache_info+0x5ba>
    527f:	48 8d 35 3a 71 00 00 	lea    0x713a(%rip),%rsi        # c3c0 <args_doc_str.10218+0x13e8>
    5286:	bf 01 00 00 00       	mov    $0x1,%edi
    528b:	31 c0                	xor    %eax,%eax
    528d:	e8 9e e1 ff ff       	callq  3430 <__printf_chk@plt>
    5292:	0f bf 55 0a          	movswl 0xa(%rbp),%edx
    5296:	bf 01 00 00 00       	mov    $0x1,%edi
    529b:	31 c0                	xor    %eax,%eax
    529d:	48 83 c5 10          	add    $0x10,%rbp
    52a1:	48 8d 35 27 71 00 00 	lea    0x7127(%rip),%rsi        # c3cf <args_doc_str.10218+0x13f7>
    52a8:	e8 83 e1 ff ff       	callq  3430 <__printf_chk@plt>
    52ad:	0f bf 45 f6          	movswl -0xa(%rbp),%eax
    52b1:	0f bf 55 f4          	movswl -0xc(%rbp),%edx
    52b5:	48 8d 35 1d 71 00 00 	lea    0x711d(%rip),%rsi        # c3d9 <args_doc_str.10218+0x1401>
    52bc:	bf 01 00 00 00       	mov    $0x1,%edi
    52c1:	0f af d0             	imul   %eax,%edx
    52c4:	0f bf 45 f8          	movswl -0x8(%rbp),%eax
    52c8:	0f af 55 f0          	imul   -0x10(%rbp),%edx
    52cc:	0f af d0             	imul   %eax,%edx
    52cf:	31 c0                	xor    %eax,%eax
    52d1:	c1 ea 0a             	shr    $0xa,%edx
    52d4:	e8 57 e1 ff ff       	callq  3430 <__printf_chk@plt>
    52d9:	0f bf 4d f4          	movswl -0xc(%rbp),%ecx
    52dd:	44 0f bf 4d f8       	movswl -0x8(%rbp),%r9d
    52e2:	31 c0                	xor    %eax,%eax
    52e4:	44 0f bf 45 f6       	movswl -0xa(%rbp),%r8d
    52e9:	8b 55 f0             	mov    -0x10(%rbp),%edx
    52ec:	bf 01 00 00 00       	mov    $0x1,%edi
    52f1:	48 8d 35 f8 6d 00 00 	lea    0x6df8(%rip),%rsi        # c0f0 <args_doc_str.10218+0x1118>
    52f8:	e8 33 e1 ff ff       	callq  3430 <__printf_chk@plt>
    52fd:	e9 3d ff ff ff       	jmpq   523f <print_cache_info+0x567>
    5302:	44 89 25 37 ce 00 00 	mov    %r12d,0xce37(%rip)        # 12140 <gl_det_cache_info_len>
    5309:	48 8b 44 24 28       	mov    0x28(%rsp),%rax
    530e:	64 48 33 04 25 28 00 	xor    %fs:0x28,%rax
    5315:	00 00 
    5317:	74 05                	je     531e <print_cache_info+0x646>
    5319:	e8 42 e3 ff ff       	callq  3660 <__stack_chk_fail@plt>
    531e:	48 83 c4 38          	add    $0x38,%rsp
    5322:	44 89 e0             	mov    %r12d,%eax
    5325:	5b                   	pop    %rbx
    5326:	5d                   	pop    %rbp
    5327:	41 5c                	pop    %r12
    5329:	41 5d                	pop    %r13
    532b:	41 5e                	pop    %r14
    532d:	41 5f                	pop    %r15
    532f:	c3                   	retq   

0000000000005330 <sys_stat_mem_print_header>:
    5330:	f3 0f 1e fa          	endbr64 
    5334:	48 8d 3d 75 6e 00 00 	lea    0x6e75(%rip),%rdi        # c1b0 <args_doc_str.10218+0x11d8>
    533b:	e9 50 e4 ff ff       	jmpq   3790 <puts@plt>

0000000000005340 <sys_stat_mem_print>:
    5340:	f3 0f 1e fa          	endbr64 
    5344:	50                   	push   %rax
    5345:	8b 4f 08             	mov    0x8(%rdi),%ecx
    5348:	48 8d 35 d1 6e 00 00 	lea    0x6ed1(%rip),%rsi        # c220 <args_doc_str.10218+0x1248>
    534f:	8b 57 04             	mov    0x4(%rdi),%edx
    5352:	ff 77 38             	pushq  0x38(%rdi)
    5355:	ff 77 30             	pushq  0x30(%rdi)
    5358:	ff 77 28             	pushq  0x28(%rdi)
    535b:	ff 77 20             	pushq  0x20(%rdi)
    535e:	ff 77 18             	pushq  0x18(%rdi)
    5361:	8b 47 14             	mov    0x14(%rdi),%eax
    5364:	50                   	push   %rax
    5365:	44 8b 4f 10          	mov    0x10(%rdi),%r9d
    5369:	31 c0                	xor    %eax,%eax
    536b:	44 8b 47 0c          	mov    0xc(%rdi),%r8d
    536f:	bf 01 00 00 00       	mov    $0x1,%edi
    5374:	e8 b7 e0 ff ff       	callq  3430 <__printf_chk@plt>
    5379:	48 83 c4 38          	add    $0x38,%rsp
    537d:	c3                   	retq   

000000000000537e <sys_stat_mem_print_delta>:
    537e:	f3 0f 1e fa          	endbr64 
    5382:	50                   	push   %rax
    5383:	48 8b 46 38          	mov    0x38(%rsi),%rax
    5387:	48 2b 47 38          	sub    0x38(%rdi),%rax
    538b:	44 8b 4e 10          	mov    0x10(%rsi),%r9d
    538f:	44 8b 46 0c          	mov    0xc(%rsi),%r8d
    5393:	8b 4e 08             	mov    0x8(%rsi),%ecx
    5396:	8b 56 04             	mov    0x4(%rsi),%edx
    5399:	2b 4f 08             	sub    0x8(%rdi),%ecx
    539c:	2b 57 04             	sub    0x4(%rdi),%edx
    539f:	50                   	push   %rax
    53a0:	48 8b 46 30          	mov    0x30(%rsi),%rax
    53a4:	48 2b 47 30          	sub    0x30(%rdi),%rax
    53a8:	50                   	push   %rax
    53a9:	48 8b 46 28          	mov    0x28(%rsi),%rax
    53ad:	48 2b 47 28          	sub    0x28(%rdi),%rax
    53b1:	50                   	push   %rax
    53b2:	48 8b 46 20          	mov    0x20(%rsi),%rax
    53b6:	48 2b 47 20          	sub    0x20(%rdi),%rax
    53ba:	50                   	push   %rax
    53bb:	48 8b 46 18          	mov    0x18(%rsi),%rax
    53bf:	48 2b 47 18          	sub    0x18(%rdi),%rax
    53c3:	50                   	push   %rax
    53c4:	8b 46 14             	mov    0x14(%rsi),%eax
    53c7:	48 8d 35 52 6e 00 00 	lea    0x6e52(%rip),%rsi        # c220 <args_doc_str.10218+0x1248>
    53ce:	2b 47 14             	sub    0x14(%rdi),%eax
    53d1:	50                   	push   %rax
    53d2:	31 c0                	xor    %eax,%eax
    53d4:	44 2b 4f 10          	sub    0x10(%rdi),%r9d
    53d8:	44 2b 47 0c          	sub    0xc(%rdi),%r8d
    53dc:	bf 01 00 00 00       	mov    $0x1,%edi
    53e1:	e8 4a e0 ff ff       	callq  3430 <__printf_chk@plt>
    53e6:	48 83 c4 38          	add    $0x38,%rsp
    53ea:	c3                   	retq   

00000000000053eb <dump_histogram_64>:
    53eb:	f3 0f 1e fa          	endbr64 
    53ef:	41 55                	push   %r13
    53f1:	31 c0                	xor    %eax,%eax
    53f3:	41 54                	push   %r12
    53f5:	49 89 fc             	mov    %rdi,%r12
    53f8:	55                   	push   %rbp
    53f9:	53                   	push   %rbx
    53fa:	49 8d 9c 24 80 00 00 	lea    0x80(%r12),%rbx
    5401:	00 
    5402:	56                   	push   %rsi
    5403:	48 8b 2f             	mov    (%rdi),%rbp
    5406:	48 8d 35 84 76 00 00 	lea    0x7684(%rip),%rsi        # ca91 <__func__.9605+0xb1>
    540d:	bf 01 00 00 00       	mov    $0x1,%edi
    5412:	48 89 ea             	mov    %rbp,%rdx
    5415:	e8 16 e0 ff ff       	callq  3430 <__printf_chk@plt>
    541a:	ba 08 00 00 00       	mov    $0x8,%edx
    541f:	31 c0                	xor    %eax,%eax
    5421:	45 31 c0             	xor    %r8d,%r8d
    5424:	4c 03 04 c3          	add    (%rbx,%rax,8),%r8
    5428:	48 ff c0             	inc    %rax
    542b:	48 83 f8 10          	cmp    $0x10,%rax
    542f:	75 f3                	jne    5424 <dump_histogram_64+0x39>
    5431:	44 8d 6a 01          	lea    0x1(%rdx),%r13d
    5435:	48 8d 35 68 76 00 00 	lea    0x7668(%rip),%rsi        # caa4 <__func__.9605+0xc4>
    543c:	31 c0                	xor    %eax,%eax
    543e:	4c 01 c5             	add    %r8,%rbp
    5441:	44 89 e9             	mov    %r13d,%ecx
    5444:	bf 01 00 00 00       	mov    $0x1,%edi
    5449:	48 83 eb 80          	sub    $0xffffffffffffff80,%rbx
    544d:	e8 de df ff ff       	callq  3430 <__printf_chk@plt>
    5452:	4c 8b 4b 98          	mov    -0x68(%rbx),%r9
    5456:	4c 8b 43 90          	mov    -0x70(%rbx),%r8
    545a:	31 c0                	xor    %eax,%eax
    545c:	48 8b 4b 88          	mov    -0x78(%rbx),%rcx
    5460:	ff 73 f8             	pushq  -0x8(%rbx)
    5463:	48 8d 35 ae 75 00 00 	lea    0x75ae(%rip),%rsi        # ca18 <__func__.9605+0x38>
    546a:	bf 01 00 00 00       	mov    $0x1,%edi
    546f:	ff 73 f0             	pushq  -0x10(%rbx)
    5472:	ff 73 e8             	pushq  -0x18(%rbx)
    5475:	ff 73 e0             	pushq  -0x20(%rbx)
    5478:	ff 73 d8             	pushq  -0x28(%rbx)
    547b:	ff 73 d0             	pushq  -0x30(%rbx)
    547e:	ff 73 c8             	pushq  -0x38(%rbx)
    5481:	ff 73 c0             	pushq  -0x40(%rbx)
    5484:	ff 73 b8             	pushq  -0x48(%rbx)
    5487:	ff 73 b0             	pushq  -0x50(%rbx)
    548a:	ff 73 a8             	pushq  -0x58(%rbx)
    548d:	ff 73 a0             	pushq  -0x60(%rbx)
    5490:	48 8b 53 80          	mov    -0x80(%rbx),%rdx
    5494:	e8 97 df ff ff       	callq  3430 <__printf_chk@plt>
    5499:	48 83 c4 60          	add    $0x60,%rsp
    549d:	41 83 fd 17          	cmp    $0x17,%r13d
    54a1:	74 08                	je     54ab <dump_histogram_64+0xc0>
    54a3:	44 89 ea             	mov    %r13d,%edx
    54a6:	e9 74 ff ff ff       	jmpq   541f <dump_histogram_64+0x34>
    54ab:	31 db                	xor    %ebx,%ebx
    54ad:	4c 8d 2d 08 76 00 00 	lea    0x7608(%rip),%r13        # cabc <__func__.9605+0xdc>
    54b4:	4d 8b 44 dc 40       	mov    0x40(%r12,%rbx,8),%r8
    54b9:	8d 4b 18             	lea    0x18(%rbx),%ecx
    54bc:	8d 53 17             	lea    0x17(%rbx),%edx
    54bf:	4c 89 ee             	mov    %r13,%rsi
    54c2:	bf 01 00 00 00       	mov    $0x1,%edi
    54c7:	31 c0                	xor    %eax,%eax
    54c9:	e8 62 df ff ff       	callq  3430 <__printf_chk@plt>
    54ce:	49 03 6c dc 40       	add    0x40(%r12,%rbx,8),%rbp
    54d3:	48 ff c3             	inc    %rbx
    54d6:	48 83 fb 07          	cmp    $0x7,%rbx
    54da:	75 d8                	jne    54b4 <dump_histogram_64+0xc9>
    54dc:	49 8b 54 24 78       	mov    0x78(%r12),%rdx
    54e1:	48 8d 35 e7 75 00 00 	lea    0x75e7(%rip),%rsi        # cacf <__func__.9605+0xef>
    54e8:	bf 01 00 00 00       	mov    $0x1,%edi
    54ed:	31 c0                	xor    %eax,%eax
    54ef:	e8 3c df ff ff       	callq  3430 <__printf_chk@plt>
    54f4:	49 8b 54 24 78       	mov    0x78(%r12),%rdx
    54f9:	48 8d 35 e2 75 00 00 	lea    0x75e2(%rip),%rsi        # cae2 <__func__.9605+0x102>
    5500:	59                   	pop    %rcx
    5501:	bf 01 00 00 00       	mov    $0x1,%edi
    5506:	5b                   	pop    %rbx
    5507:	31 c0                	xor    %eax,%eax
    5509:	48 01 ea             	add    %rbp,%rdx
    550c:	5d                   	pop    %rbp
    550d:	41 5c                	pop    %r12
    550f:	41 5d                	pop    %r13
    5511:	e9 1a df ff ff       	jmpq   3430 <__printf_chk@plt>

0000000000005516 <makeMemItemDeltaNode>:
    5516:	41 55                	push   %r13
    5518:	31 c9                	xor    %ecx,%ecx
    551a:	49 89 d5             	mov    %rdx,%r13
    551d:	48 8d 15 42 76 00 00 	lea    0x7642(%rip),%rdx        # cb66 <__func__.9605+0x186>
    5524:	41 54                	push   %r12
    5526:	55                   	push   %rbp
    5527:	48 89 f5             	mov    %rsi,%rbp
    552a:	31 f6                	xor    %esi,%esi
    552c:	e8 7f df ff ff       	callq  34b0 <xmlNewChild@plt>
    5531:	31 d2                	xor    %edx,%edx
    5533:	4c 89 ee             	mov    %r13,%rsi
    5536:	48 89 ef             	mov    %rbp,%rdi
    5539:	49 89 c4             	mov    %rax,%r12
    553c:	e8 3f 27 00 00       	callq  7c80 <sys_stat_mem_get_delta>
    5541:	48 89 c7             	mov    %rax,%rdi
    5544:	e8 f7 2d 00 00       	callq  8340 <signedIntToXmlChar>
    5549:	31 f6                	xor    %esi,%esi
    554b:	4c 89 e7             	mov    %r12,%rdi
    554e:	48 8d 15 20 76 00 00 	lea    0x7620(%rip),%rdx        # cb75 <__func__.9605+0x195>
    5555:	48 89 c1             	mov    %rax,%rcx
    5558:	e8 53 df ff ff       	callq  34b0 <xmlNewChild@plt>
    555d:	4c 89 ee             	mov    %r13,%rsi
    5560:	ba 01 00 00 00       	mov    $0x1,%edx
    5565:	48 89 ef             	mov    %rbp,%rdi
    5568:	e8 13 27 00 00       	callq  7c80 <sys_stat_mem_get_delta>
    556d:	48 89 c7             	mov    %rax,%rdi
    5570:	e8 cb 2d 00 00       	callq  8340 <signedIntToXmlChar>
    5575:	31 f6                	xor    %esi,%esi
    5577:	4c 89 e7             	mov    %r12,%rdi
    557a:	48 8d 15 fd 75 00 00 	lea    0x75fd(%rip),%rdx        # cb7e <__func__.9605+0x19e>
    5581:	48 89 c1             	mov    %rax,%rcx
    5584:	e8 27 df ff ff       	callq  34b0 <xmlNewChild@plt>
    5589:	4c 89 ee             	mov    %r13,%rsi
    558c:	ba 02 00 00 00       	mov    $0x2,%edx
    5591:	48 89 ef             	mov    %rbp,%rdi
    5594:	e8 e7 26 00 00       	callq  7c80 <sys_stat_mem_get_delta>
    5599:	48 89 c7             	mov    %rax,%rdi
    559c:	e8 9f 2d 00 00       	callq  8340 <signedIntToXmlChar>
    55a1:	31 f6                	xor    %esi,%esi
    55a3:	4c 89 e7             	mov    %r12,%rdi
    55a6:	48 8d 15 dc 75 00 00 	lea    0x75dc(%rip),%rdx        # cb89 <__func__.9605+0x1a9>
    55ad:	48 89 c1             	mov    %rax,%rcx
    55b0:	e8 fb de ff ff       	callq  34b0 <xmlNewChild@plt>
    55b5:	4c 89 ee             	mov    %r13,%rsi
    55b8:	ba 03 00 00 00       	mov    $0x3,%edx
    55bd:	48 89 ef             	mov    %rbp,%rdi
    55c0:	e8 bb 26 00 00       	callq  7c80 <sys_stat_mem_get_delta>
    55c5:	48 89 c7             	mov    %rax,%rdi
    55c8:	e8 73 2d 00 00       	callq  8340 <signedIntToXmlChar>
    55cd:	31 f6                	xor    %esi,%esi
    55cf:	4c 89 e7             	mov    %r12,%rdi
    55d2:	48 8d 15 bc 75 00 00 	lea    0x75bc(%rip),%rdx        # cb95 <__func__.9605+0x1b5>
    55d9:	48 89 c1             	mov    %rax,%rcx
    55dc:	e8 cf de ff ff       	callq  34b0 <xmlNewChild@plt>
    55e1:	4c 89 ee             	mov    %r13,%rsi
    55e4:	ba 04 00 00 00       	mov    $0x4,%edx
    55e9:	48 89 ef             	mov    %rbp,%rdi
    55ec:	e8 8f 26 00 00       	callq  7c80 <sys_stat_mem_get_delta>
    55f1:	48 89 c7             	mov    %rax,%rdi
    55f4:	e8 47 2d 00 00       	callq  8340 <signedIntToXmlChar>
    55f9:	31 f6                	xor    %esi,%esi
    55fb:	4c 89 e7             	mov    %r12,%rdi
    55fe:	48 8d 15 8e 75 00 00 	lea    0x758e(%rip),%rdx        # cb93 <__func__.9605+0x1b3>
    5605:	48 89 c1             	mov    %rax,%rcx
    5608:	e8 a3 de ff ff       	callq  34b0 <xmlNewChild@plt>
    560d:	4c 89 ee             	mov    %r13,%rsi
    5610:	ba 05 00 00 00       	mov    $0x5,%edx
    5615:	48 89 ef             	mov    %rbp,%rdi
    5618:	e8 63 26 00 00       	callq  7c80 <sys_stat_mem_get_delta>
    561d:	48 89 c7             	mov    %rax,%rdi
    5620:	e8 1b 2d 00 00       	callq  8340 <signedIntToXmlChar>
    5625:	31 f6                	xor    %esi,%esi
    5627:	4c 89 e7             	mov    %r12,%rdi
    562a:	48 8d 15 27 6e 00 00 	lea    0x6e27(%rip),%rdx        # c458 <args_doc_str.10218+0x1480>
    5631:	48 89 c1             	mov    %rax,%rcx
    5634:	e8 77 de ff ff       	callq  34b0 <xmlNewChild@plt>
    5639:	4c 89 ee             	mov    %r13,%rsi
    563c:	ba 06 00 00 00       	mov    $0x6,%edx
    5641:	48 89 ef             	mov    %rbp,%rdi
    5644:	e8 37 26 00 00       	callq  7c80 <sys_stat_mem_get_delta>
    5649:	48 89 c7             	mov    %rax,%rdi
    564c:	e8 ef 2c 00 00       	callq  8340 <signedIntToXmlChar>
    5651:	31 f6                	xor    %esi,%esi
    5653:	4c 89 e7             	mov    %r12,%rdi
    5656:	48 8d 15 43 75 00 00 	lea    0x7543(%rip),%rdx        # cba0 <__func__.9605+0x1c0>
    565d:	48 89 c1             	mov    %rax,%rcx
    5660:	e8 4b de ff ff       	callq  34b0 <xmlNewChild@plt>
    5665:	4c 89 ee             	mov    %r13,%rsi
    5668:	ba 07 00 00 00       	mov    $0x7,%edx
    566d:	48 89 ef             	mov    %rbp,%rdi
    5670:	e8 0b 26 00 00       	callq  7c80 <sys_stat_mem_get_delta>
    5675:	48 89 c7             	mov    %rax,%rdi
    5678:	e8 c3 2c 00 00       	callq  8340 <signedIntToXmlChar>
    567d:	4c 89 e7             	mov    %r12,%rdi
    5680:	48 8d 15 21 75 00 00 	lea    0x7521(%rip),%rdx        # cba8 <__func__.9605+0x1c8>
    5687:	31 f6                	xor    %esi,%esi
    5689:	48 89 c1             	mov    %rax,%rcx
    568c:	e8 1f de ff ff       	callq  34b0 <xmlNewChild@plt>
    5691:	4c 89 ee             	mov    %r13,%rsi
    5694:	ba 08 00 00 00       	mov    $0x8,%edx
    5699:	48 89 ef             	mov    %rbp,%rdi
    569c:	e8 df 25 00 00       	callq  7c80 <sys_stat_mem_get_delta>
    56a1:	48 89 c7             	mov    %rax,%rdi
    56a4:	e8 97 2c 00 00       	callq  8340 <signedIntToXmlChar>
    56a9:	4c 89 e7             	mov    %r12,%rdi
    56ac:	48 8d 15 fc 74 00 00 	lea    0x74fc(%rip),%rdx        # cbaf <__func__.9605+0x1cf>
    56b3:	31 f6                	xor    %esi,%esi
    56b5:	48 89 c1             	mov    %rax,%rcx
    56b8:	e8 f3 dd ff ff       	callq  34b0 <xmlNewChild@plt>
    56bd:	4c 89 ee             	mov    %r13,%rsi
    56c0:	ba 09 00 00 00       	mov    $0x9,%edx
    56c5:	48 89 ef             	mov    %rbp,%rdi
    56c8:	e8 b3 25 00 00       	callq  7c80 <sys_stat_mem_get_delta>
    56cd:	48 89 c7             	mov    %rax,%rdi
    56d0:	e8 6b 2c 00 00       	callq  8340 <signedIntToXmlChar>
    56d5:	4c 89 e7             	mov    %r12,%rdi
    56d8:	48 8d 15 80 6d 00 00 	lea    0x6d80(%rip),%rdx        # c45f <args_doc_str.10218+0x1487>
    56df:	31 f6                	xor    %esi,%esi
    56e1:	48 89 c1             	mov    %rax,%rcx
    56e4:	e8 c7 dd ff ff       	callq  34b0 <xmlNewChild@plt>
    56e9:	4c 89 e0             	mov    %r12,%rax
    56ec:	5d                   	pop    %rbp
    56ed:	41 5c                	pop    %r12
    56ef:	41 5d                	pop    %r13
    56f1:	c3                   	retq   

00000000000056f2 <makeSysMemItemNode>:
    56f2:	41 56                	push   %r14
    56f4:	31 c9                	xor    %ecx,%ecx
    56f6:	49 89 f6             	mov    %rsi,%r14
    56f9:	31 f6                	xor    %esi,%esi
    56fb:	41 55                	push   %r13
    56fd:	41 54                	push   %r12
    56ff:	49 89 d4             	mov    %rdx,%r12
    5702:	48 8d 15 ae 74 00 00 	lea    0x74ae(%rip),%rdx        # cbb7 <__func__.9605+0x1d7>
    5709:	55                   	push   %rbp
    570a:	50                   	push   %rax
    570b:	e8 a0 dd ff ff       	callq  34b0 <xmlNewChild@plt>
    5710:	4c 89 f2             	mov    %r14,%rdx
    5713:	48 8d 35 16 76 00 00 	lea    0x7616(%rip),%rsi        # cd30 <__func__.9605+0x350>
    571a:	49 89 c5             	mov    %rax,%r13
    571d:	48 89 c7             	mov    %rax,%rdi
    5720:	e8 4b df ff ff       	callq  3670 <xmlNewProp@plt>
    5725:	31 c9                	xor    %ecx,%ecx
    5727:	48 8d 15 96 74 00 00 	lea    0x7496(%rip),%rdx        # cbc4 <__func__.9605+0x1e4>
    572e:	31 f6                	xor    %esi,%esi
    5730:	4c 89 ef             	mov    %r13,%rdi
    5733:	e8 78 dd ff ff       	callq  34b0 <xmlNewChild@plt>
    5738:	31 f6                	xor    %esi,%esi
    573a:	4c 89 e7             	mov    %r12,%rdi
    573d:	48 89 c5             	mov    %rax,%rbp
    5740:	e8 ab 24 00 00       	callq  7bf0 <sys_stat_mem_get>
    5745:	48 89 c7             	mov    %rax,%rdi
    5748:	e8 f3 2b 00 00       	callq  8340 <signedIntToXmlChar>
    574d:	48 8d 15 21 74 00 00 	lea    0x7421(%rip),%rdx        # cb75 <__func__.9605+0x195>
    5754:	31 f6                	xor    %esi,%esi
    5756:	48 89 ef             	mov    %rbp,%rdi
    5759:	48 89 c1             	mov    %rax,%rcx
    575c:	e8 4f dd ff ff       	callq  34b0 <xmlNewChild@plt>
    5761:	be 01 00 00 00       	mov    $0x1,%esi
    5766:	4c 89 e7             	mov    %r12,%rdi
    5769:	e8 82 24 00 00       	callq  7bf0 <sys_stat_mem_get>
    576e:	48 89 c7             	mov    %rax,%rdi
    5771:	e8 ca 2b 00 00       	callq  8340 <signedIntToXmlChar>
    5776:	48 8d 15 01 74 00 00 	lea    0x7401(%rip),%rdx        # cb7e <__func__.9605+0x19e>
    577d:	31 f6                	xor    %esi,%esi
    577f:	48 89 ef             	mov    %rbp,%rdi
    5782:	48 89 c1             	mov    %rax,%rcx
    5785:	e8 26 dd ff ff       	callq  34b0 <xmlNewChild@plt>
    578a:	be 02 00 00 00       	mov    $0x2,%esi
    578f:	4c 89 e7             	mov    %r12,%rdi
    5792:	e8 59 24 00 00       	callq  7bf0 <sys_stat_mem_get>
    5797:	48 89 c7             	mov    %rax,%rdi
    579a:	e8 a1 2b 00 00       	callq  8340 <signedIntToXmlChar>
    579f:	48 8d 15 e3 73 00 00 	lea    0x73e3(%rip),%rdx        # cb89 <__func__.9605+0x1a9>
    57a6:	31 f6                	xor    %esi,%esi
    57a8:	48 89 ef             	mov    %rbp,%rdi
    57ab:	48 89 c1             	mov    %rax,%rcx
    57ae:	e8 fd dc ff ff       	callq  34b0 <xmlNewChild@plt>
    57b3:	be 03 00 00 00       	mov    $0x3,%esi
    57b8:	4c 89 e7             	mov    %r12,%rdi
    57bb:	e8 30 24 00 00       	callq  7bf0 <sys_stat_mem_get>
    57c0:	48 89 c7             	mov    %rax,%rdi
    57c3:	e8 78 2b 00 00       	callq  8340 <signedIntToXmlChar>
    57c8:	48 8d 15 c6 73 00 00 	lea    0x73c6(%rip),%rdx        # cb95 <__func__.9605+0x1b5>
    57cf:	31 f6                	xor    %esi,%esi
    57d1:	48 89 ef             	mov    %rbp,%rdi
    57d4:	48 89 c1             	mov    %rax,%rcx
    57d7:	e8 d4 dc ff ff       	callq  34b0 <xmlNewChild@plt>
    57dc:	be 04 00 00 00       	mov    $0x4,%esi
    57e1:	4c 89 e7             	mov    %r12,%rdi
    57e4:	e8 07 24 00 00       	callq  7bf0 <sys_stat_mem_get>
    57e9:	48 89 c7             	mov    %rax,%rdi
    57ec:	e8 4f 2b 00 00       	callq  8340 <signedIntToXmlChar>
    57f1:	48 8d 15 9b 73 00 00 	lea    0x739b(%rip),%rdx        # cb93 <__func__.9605+0x1b3>
    57f8:	31 f6                	xor    %esi,%esi
    57fa:	48 89 ef             	mov    %rbp,%rdi
    57fd:	48 89 c1             	mov    %rax,%rcx
    5800:	e8 ab dc ff ff       	callq  34b0 <xmlNewChild@plt>
    5805:	be 05 00 00 00       	mov    $0x5,%esi
    580a:	4c 89 e7             	mov    %r12,%rdi
    580d:	e8 de 23 00 00       	callq  7bf0 <sys_stat_mem_get>
    5812:	48 89 c7             	mov    %rax,%rdi
    5815:	e8 26 2b 00 00       	callq  8340 <signedIntToXmlChar>
    581a:	48 8d 15 37 6c 00 00 	lea    0x6c37(%rip),%rdx        # c458 <args_doc_str.10218+0x1480>
    5821:	31 f6                	xor    %esi,%esi
    5823:	48 89 ef             	mov    %rbp,%rdi
    5826:	48 89 c1             	mov    %rax,%rcx
    5829:	e8 82 dc ff ff       	callq  34b0 <xmlNewChild@plt>
    582e:	be 06 00 00 00       	mov    $0x6,%esi
    5833:	4c 89 e7             	mov    %r12,%rdi
    5836:	e8 b5 23 00 00       	callq  7bf0 <sys_stat_mem_get>
    583b:	48 89 c7             	mov    %rax,%rdi
    583e:	e8 fd 2a 00 00       	callq  8340 <signedIntToXmlChar>
    5843:	48 8d 15 56 73 00 00 	lea    0x7356(%rip),%rdx        # cba0 <__func__.9605+0x1c0>
    584a:	48 89 ef             	mov    %rbp,%rdi
    584d:	31 f6                	xor    %esi,%esi
    584f:	48 89 c1             	mov    %rax,%rcx
    5852:	e8 59 dc ff ff       	callq  34b0 <xmlNewChild@plt>
    5857:	be 07 00 00 00       	mov    $0x7,%esi
    585c:	4c 89 e7             	mov    %r12,%rdi
    585f:	e8 8c 23 00 00       	callq  7bf0 <sys_stat_mem_get>
    5864:	48 89 c7             	mov    %rax,%rdi
    5867:	e8 d4 2a 00 00       	callq  8340 <signedIntToXmlChar>
    586c:	48 8d 15 35 73 00 00 	lea    0x7335(%rip),%rdx        # cba8 <__func__.9605+0x1c8>
    5873:	48 89 ef             	mov    %rbp,%rdi
    5876:	31 f6                	xor    %esi,%esi
    5878:	48 89 c1             	mov    %rax,%rcx
    587b:	e8 30 dc ff ff       	callq  34b0 <xmlNewChild@plt>
    5880:	be 08 00 00 00       	mov    $0x8,%esi
    5885:	4c 89 e7             	mov    %r12,%rdi
    5888:	e8 63 23 00 00       	callq  7bf0 <sys_stat_mem_get>
    588d:	48 89 c7             	mov    %rax,%rdi
    5890:	e8 ab 2a 00 00       	callq  8340 <signedIntToXmlChar>
    5895:	48 8d 15 13 73 00 00 	lea    0x7313(%rip),%rdx        # cbaf <__func__.9605+0x1cf>
    589c:	48 89 ef             	mov    %rbp,%rdi
    589f:	31 f6                	xor    %esi,%esi
    58a1:	48 89 c1             	mov    %rax,%rcx
    58a4:	e8 07 dc ff ff       	callq  34b0 <xmlNewChild@plt>
    58a9:	be 09 00 00 00       	mov    $0x9,%esi
    58ae:	4c 89 e7             	mov    %r12,%rdi
    58b1:	e8 3a 23 00 00       	callq  7bf0 <sys_stat_mem_get>
    58b6:	48 89 c7             	mov    %rax,%rdi
    58b9:	e8 82 2a 00 00       	callq  8340 <signedIntToXmlChar>
    58be:	48 8d 15 9a 6b 00 00 	lea    0x6b9a(%rip),%rdx        # c45f <args_doc_str.10218+0x1487>
    58c5:	48 89 ef             	mov    %rbp,%rdi
    58c8:	31 f6                	xor    %esi,%esi
    58ca:	48 89 c1             	mov    %rax,%rcx
    58cd:	e8 de db ff ff       	callq  34b0 <xmlNewChild@plt>
    58d2:	5a                   	pop    %rdx
    58d3:	4c 89 e8             	mov    %r13,%rax
    58d6:	5d                   	pop    %rbp
    58d7:	41 5c                	pop    %r12
    58d9:	41 5d                	pop    %r13
    58db:	41 5e                	pop    %r14
    58dd:	c3                   	retq   

00000000000058de <makeBucketNode>:
    58de:	41 56                	push   %r14
    58e0:	4d 89 c6             	mov    %r8,%r14
    58e3:	41 55                	push   %r13
    58e5:	41 89 f5             	mov    %esi,%r13d
    58e8:	31 f6                	xor    %esi,%esi
    58ea:	41 54                	push   %r12
    58ec:	55                   	push   %rbp
    58ed:	89 d5                	mov    %edx,%ebp
    58ef:	48 8d 15 e0 72 00 00 	lea    0x72e0(%rip),%rdx        # cbd6 <__func__.9605+0x1f6>
    58f6:	53                   	push   %rbx
    58f7:	89 cb                	mov    %ecx,%ebx
    58f9:	31 c9                	xor    %ecx,%ecx
    58fb:	e8 b0 db ff ff       	callq  34b0 <xmlNewChild@plt>
    5900:	49 63 fd             	movslq %r13d,%rdi
    5903:	49 89 c4             	mov    %rax,%r12
    5906:	e8 35 2a 00 00       	callq  8340 <signedIntToXmlChar>
    590b:	4c 89 e7             	mov    %r12,%rdi
    590e:	48 8d 35 ce 72 00 00 	lea    0x72ce(%rip),%rsi        # cbe3 <__func__.9605+0x203>
    5915:	48 89 c2             	mov    %rax,%rdx
    5918:	e8 53 dd ff ff       	callq  3670 <xmlNewProp@plt>
    591d:	31 c9                	xor    %ecx,%ecx
    591f:	48 8d 15 c3 72 00 00 	lea    0x72c3(%rip),%rdx        # cbe9 <__func__.9605+0x209>
    5926:	31 f6                	xor    %esi,%esi
    5928:	4c 89 e7             	mov    %r12,%rdi
    592b:	e8 80 db ff ff       	callq  34b0 <xmlNewChild@plt>
    5930:	48 63 fd             	movslq %ebp,%rdi
    5933:	49 89 c5             	mov    %rax,%r13
    5936:	e8 05 2a 00 00       	callq  8340 <signedIntToXmlChar>
    593b:	48 8d 15 b7 72 00 00 	lea    0x72b7(%rip),%rdx        # cbf9 <__func__.9605+0x219>
    5942:	31 f6                	xor    %esi,%esi
    5944:	4c 89 ef             	mov    %r13,%rdi
    5947:	48 89 c1             	mov    %rax,%rcx
    594a:	e8 61 db ff ff       	callq  34b0 <xmlNewChild@plt>
    594f:	48 63 fb             	movslq %ebx,%rdi
    5952:	e8 e9 29 00 00       	callq  8340 <signedIntToXmlChar>
    5957:	48 8d 15 a7 72 00 00 	lea    0x72a7(%rip),%rdx        # cc05 <__func__.9605+0x225>
    595e:	31 f6                	xor    %esi,%esi
    5960:	4c 89 ef             	mov    %r13,%rdi
    5963:	48 89 c1             	mov    %rax,%rcx
    5966:	e8 45 db ff ff       	callq  34b0 <xmlNewChild@plt>
    596b:	4c 89 f7             	mov    %r14,%rdi
    596e:	e8 2d 2a 00 00       	callq  83a0 <unsignedIntToXmlChar>
    5973:	4c 89 e7             	mov    %r12,%rdi
    5976:	48 8d 15 94 72 00 00 	lea    0x7294(%rip),%rdx        # cc11 <__func__.9605+0x231>
    597d:	31 f6                	xor    %esi,%esi
    597f:	48 89 c1             	mov    %rax,%rcx
    5982:	e8 29 db ff ff       	callq  34b0 <xmlNewChild@plt>
    5987:	5b                   	pop    %rbx
    5988:	4c 89 e0             	mov    %r12,%rax
    598b:	5d                   	pop    %rbp
    598c:	41 5c                	pop    %r12
    598e:	41 5d                	pop    %r13
    5990:	41 5e                	pop    %r14
    5992:	c3                   	retq   

0000000000005993 <makeHistogramNode>:
    5993:	41 57                	push   %r15
    5995:	31 c9                	xor    %ecx,%ecx
    5997:	41 56                	push   %r14
    5999:	41 55                	push   %r13
    599b:	49 89 fd             	mov    %rdi,%r13
    599e:	48 89 d7             	mov    %rdx,%rdi
    59a1:	48 8d 15 60 71 00 00 	lea    0x7160(%rip),%rdx        # cb08 <__func__.9605+0x128>
    59a8:	41 54                	push   %r12
    59aa:	55                   	push   %rbp
    59ab:	89 f5                	mov    %esi,%ebp
    59ad:	31 f6                	xor    %esi,%esi
    59af:	53                   	push   %rbx
    59b0:	48 83 ec 28          	sub    $0x28,%rsp
    59b4:	e8 f7 da ff ff       	callq  34b0 <xmlNewChild@plt>
    59b9:	49 89 c4             	mov    %rax,%r12
    59bc:	85 ed                	test   %ebp,%ebp
    59be:	74 18                	je     59d8 <makeHistogramNode+0x45>
    59c0:	48 8d 15 54 72 00 00 	lea    0x7254(%rip),%rdx        # cc1b <__func__.9605+0x23b>
    59c7:	48 8d 35 53 72 00 00 	lea    0x7253(%rip),%rsi        # cc21 <__func__.9605+0x241>
    59ce:	48 89 c7             	mov    %rax,%rdi
    59d1:	e8 9a dc ff ff       	callq  3670 <xmlNewProp@plt>
    59d6:	eb 16                	jmp    59ee <makeHistogramNode+0x5b>
    59d8:	48 8d 15 26 74 00 00 	lea    0x7426(%rip),%rdx        # ce05 <__func__.9605+0x425>
    59df:	48 8d 35 3b 72 00 00 	lea    0x723b(%rip),%rsi        # cc21 <__func__.9605+0x241>
    59e6:	48 89 c7             	mov    %rax,%rdi
    59e9:	e8 82 dc ff ff       	callq  3670 <xmlNewProp@plt>
    59ee:	31 d2                	xor    %edx,%edx
    59f0:	89 ee                	mov    %ebp,%esi
    59f2:	4c 89 ef             	mov    %r13,%rdi
    59f5:	41 be 01 00 00 00    	mov    $0x1,%r14d
    59fb:	e8 b0 27 00 00       	callq  81b0 <get_histogram_bucket>
    5a00:	b9 08 00 00 00       	mov    $0x8,%ecx
    5a05:	31 d2                	xor    %edx,%edx
    5a07:	31 f6                	xor    %esi,%esi
    5a09:	4c 8b 00             	mov    (%rax),%r8
    5a0c:	4c 89 e7             	mov    %r12,%rdi
    5a0f:	48 89 c3             	mov    %rax,%rbx
    5a12:	e8 c7 fe ff ff       	callq  58de <makeBucketNode>
    5a17:	44 89 f2             	mov    %r14d,%edx
    5a1a:	89 ee                	mov    %ebp,%esi
    5a1c:	4c 89 ef             	mov    %r13,%rdi
    5a1f:	e8 8c 27 00 00       	callq  81b0 <get_histogram_bucket>
    5a24:	45 31 c0             	xor    %r8d,%r8d
    5a27:	49 89 c2             	mov    %rax,%r10
    5a2a:	31 c0                	xor    %eax,%eax
    5a2c:	4d 03 04 c2          	add    (%r10,%rax,8),%r8
    5a30:	48 ff c0             	inc    %rax
    5a33:	48 83 f8 10          	cmp    $0x10,%rax
    5a37:	75 f3                	jne    5a2c <makeHistogramNode+0x99>
    5a39:	41 8d 4e 08          	lea    0x8(%r14),%ecx
    5a3d:	41 8d 56 07          	lea    0x7(%r14),%edx
    5a41:	44 89 f6             	mov    %r14d,%esi
    5a44:	4c 89 e7             	mov    %r12,%rdi
    5a47:	4c 89 54 24 10       	mov    %r10,0x10(%rsp)
    5a4c:	45 31 ff             	xor    %r15d,%r15d
    5a4f:	e8 8a fe ff ff       	callq  58de <makeBucketNode>
    5a54:	31 c9                	xor    %ecx,%ecx
    5a56:	48 8d 15 c9 71 00 00 	lea    0x71c9(%rip),%rdx        # cc26 <__func__.9605+0x246>
    5a5d:	31 f6                	xor    %esi,%esi
    5a5f:	48 89 c7             	mov    %rax,%rdi
    5a62:	e8 49 da ff ff       	callq  34b0 <xmlNewChild@plt>
    5a67:	4c 8b 54 24 10       	mov    0x10(%rsp),%r10
    5a6c:	48 89 44 24 08       	mov    %rax,0x8(%rsp)
    5a71:	4b 8b 3c fa          	mov    (%r10,%r15,8),%rdi
    5a75:	4c 89 54 24 18       	mov    %r10,0x18(%rsp)
    5a7a:	e8 21 29 00 00       	callq  83a0 <unsignedIntToXmlChar>
    5a7f:	48 8b 7c 24 08       	mov    0x8(%rsp),%rdi
    5a84:	31 f6                	xor    %esi,%esi
    5a86:	48 8d 15 a6 71 00 00 	lea    0x71a6(%rip),%rdx        # cc33 <__func__.9605+0x253>
    5a8d:	48 89 c1             	mov    %rax,%rcx
    5a90:	e8 1b da ff ff       	callq  34b0 <xmlNewChild@plt>
    5a95:	4c 89 ff             	mov    %r15,%rdi
    5a98:	49 ff c7             	inc    %r15
    5a9b:	48 89 44 24 10       	mov    %rax,0x10(%rsp)
    5aa0:	e8 9b 28 00 00       	callq  8340 <signedIntToXmlChar>
    5aa5:	4c 8b 5c 24 10       	mov    0x10(%rsp),%r11
    5aaa:	48 8d 35 32 71 00 00 	lea    0x7132(%rip),%rsi        # cbe3 <__func__.9605+0x203>
    5ab1:	48 89 c2             	mov    %rax,%rdx
    5ab4:	4c 89 df             	mov    %r11,%rdi
    5ab7:	e8 b4 db ff ff       	callq  3670 <xmlNewProp@plt>
    5abc:	49 83 ff 10          	cmp    $0x10,%r15
    5ac0:	4c 8b 54 24 18       	mov    0x18(%rsp),%r10
    5ac5:	75 aa                	jne    5a71 <makeHistogramNode+0xde>
    5ac7:	41 ff c6             	inc    %r14d
    5aca:	41 83 fe 10          	cmp    $0x10,%r14d
    5ace:	0f 85 43 ff ff ff    	jne    5a17 <makeHistogramNode+0x84>
    5ad4:	31 ed                	xor    %ebp,%ebp
    5ad6:	4c 8b 44 eb 40       	mov    0x40(%rbx,%rbp,8),%r8
    5adb:	8d 4d 18             	lea    0x18(%rbp),%ecx
    5ade:	8d 55 17             	lea    0x17(%rbp),%edx
    5ae1:	31 f6                	xor    %esi,%esi
    5ae3:	4c 89 e7             	mov    %r12,%rdi
    5ae6:	48 ff c5             	inc    %rbp
    5ae9:	e8 f0 fd ff ff       	callq  58de <makeBucketNode>
    5aee:	48 83 fd 07          	cmp    $0x7,%rbp
    5af2:	75 e2                	jne    5ad6 <makeHistogramNode+0x143>
    5af4:	4c 8b 43 78          	mov    0x78(%rbx),%r8
    5af8:	4c 89 e7             	mov    %r12,%rdi
    5afb:	b9 20 00 00 00       	mov    $0x20,%ecx
    5b00:	31 f6                	xor    %esi,%esi
    5b02:	ba 1e 00 00 00       	mov    $0x1e,%edx
    5b07:	e8 d2 fd ff ff       	callq  58de <makeBucketNode>
    5b0c:	48 83 c4 28          	add    $0x28,%rsp
    5b10:	4c 89 e0             	mov    %r12,%rax
    5b13:	5b                   	pop    %rbx
    5b14:	5d                   	pop    %rbp
    5b15:	41 5c                	pop    %r12
    5b17:	41 5d                	pop    %r13
    5b19:	41 5e                	pop    %r14
    5b1b:	41 5f                	pop    %r15
    5b1d:	c3                   	retq   

0000000000005b1e <print_xml_report>:
    5b1e:	f3 0f 1e fa          	endbr64 
    5b22:	41 57                	push   %r15
    5b24:	41 56                	push   %r14
    5b26:	41 89 d6             	mov    %edx,%r14d
    5b29:	41 55                	push   %r13
    5b2b:	41 54                	push   %r12
    5b2d:	55                   	push   %rbp
    5b2e:	53                   	push   %rbx
    5b2f:	48 89 f3             	mov    %rsi,%rbx
    5b32:	48 83 ec 68          	sub    $0x68,%rsp
    5b36:	48 89 7c 24 10       	mov    %rdi,0x10(%rsp)
    5b3b:	bf ae 51 00 00       	mov    $0x51ae,%edi
    5b40:	64 48 8b 04 25 28 00 	mov    %fs:0x28,%rax
    5b47:	00 00 
    5b49:	48 89 44 24 58       	mov    %rax,0x58(%rsp)
    5b4e:	31 c0                	xor    %eax,%eax
    5b50:	e8 1b dc ff ff       	callq  3770 <xmlCheckVersion@plt>
    5b55:	48 8d 3d 2f 71 00 00 	lea    0x712f(%rip),%rdi        # cc8b <__func__.9605+0x2ab>
    5b5c:	e8 7f db ff ff       	callq  36e0 <xmlNewDoc@plt>
    5b61:	31 c9                	xor    %ecx,%ecx
    5b63:	48 8d 15 25 71 00 00 	lea    0x7125(%rip),%rdx        # cc8f <__func__.9605+0x2af>
    5b6a:	31 f6                	xor    %esi,%esi
    5b6c:	48 89 c7             	mov    %rax,%rdi
    5b6f:	48 89 05 e2 bf 00 00 	mov    %rax,0xbfe2(%rip)        # 11b58 <xdoc>
    5b76:	e8 55 dc ff ff       	callq  37d0 <xmlNewDocNode@plt>
    5b7b:	48 8b 3d d6 bf 00 00 	mov    0xbfd6(%rip),%rdi        # 11b58 <xdoc>
    5b82:	48 89 c6             	mov    %rax,%rsi
    5b85:	48 89 05 c4 bf 00 00 	mov    %rax,0xbfc4(%rip)        # 11b50 <pmbenchmarknode>
    5b8c:	e8 2f dc ff ff       	callq  37c0 <xmlDocSetRootElement@plt>
    5b91:	48 8b 3d b8 bf 00 00 	mov    0xbfb8(%rip),%rdi        # 11b50 <pmbenchmarknode>
    5b98:	31 c9                	xor    %ecx,%ecx
    5b9a:	31 f6                	xor    %esi,%esi
    5b9c:	48 8d 15 f8 70 00 00 	lea    0x70f8(%rip),%rdx        # cc9b <__func__.9605+0x2bb>
    5ba3:	e8 08 d9 ff ff       	callq  34b0 <xmlNewChild@plt>
    5ba8:	31 c9                	xor    %ecx,%ecx
    5baa:	31 f6                	xor    %esi,%esi
    5bac:	48 8d 15 ef 70 00 00 	lea    0x70ef(%rip),%rdx        # cca2 <__func__.9605+0x2c2>
    5bb3:	48 89 c7             	mov    %rax,%rdi
    5bb6:	48 89 c5             	mov    %rax,%rbp
    5bb9:	e8 f2 d8 ff ff       	callq  34b0 <xmlNewChild@plt>
    5bbe:	31 c9                	xor    %ecx,%ecx
    5bc0:	31 f6                	xor    %esi,%esi
    5bc2:	48 8d 15 e3 70 00 00 	lea    0x70e3(%rip),%rdx        # ccac <__func__.9605+0x2cc>
    5bc9:	48 89 c7             	mov    %rax,%rdi
    5bcc:	49 89 c5             	mov    %rax,%r13
    5bcf:	e8 dc d8 ff ff       	callq  34b0 <xmlNewChild@plt>
    5bd4:	31 f6                	xor    %esi,%esi
    5bd6:	48 8d 0d dc 70 00 00 	lea    0x70dc(%rip),%rcx        # ccb9 <__func__.9605+0x2d9>
    5bdd:	48 8d 15 e1 70 00 00 	lea    0x70e1(%rip),%rdx        # ccc5 <__func__.9605+0x2e5>
    5be4:	49 89 c4             	mov    %rax,%r12
    5be7:	48 89 c7             	mov    %rax,%rdi
    5bea:	e8 c1 d8 ff ff       	callq  34b0 <xmlNewChild@plt>
    5bef:	31 f6                	xor    %esi,%esi
    5bf1:	4c 89 e7             	mov    %r12,%rdi
    5bf4:	48 8d 0d d9 70 00 00 	lea    0x70d9(%rip),%rcx        # ccd4 <__func__.9605+0x2f4>
    5bfb:	48 8d 15 eb 70 00 00 	lea    0x70eb(%rip),%rdx        # cced <__func__.9605+0x30d>
    5c02:	e8 a9 d8 ff ff       	callq  34b0 <xmlNewChild@plt>
    5c07:	31 f6                	xor    %esi,%esi
    5c09:	4c 89 e7             	mov    %r12,%rdi
    5c0c:	48 8d 0d 77 73 00 00 	lea    0x7377(%rip),%rcx        # cf8a <xmloutput_version>
    5c13:	48 8d 15 e3 70 00 00 	lea    0x70e3(%rip),%rdx        # ccfd <__func__.9605+0x31d>
    5c1a:	e8 91 d8 ff ff       	callq  34b0 <xmlNewChild@plt>
    5c1f:	e8 bc 21 00 00       	callq  7de0 <sys_get_hostname>
    5c24:	31 c9                	xor    %ecx,%ecx
    5c26:	31 f6                	xor    %esi,%esi
    5c28:	48 8d 15 e0 70 00 00 	lea    0x70e0(%rip),%rdx        # cd0f <__func__.9605+0x32f>
    5c2f:	4c 89 ef             	mov    %r13,%rdi
    5c32:	48 89 44 24 08       	mov    %rax,0x8(%rsp)
    5c37:	e8 74 d8 ff ff       	callq  34b0 <xmlNewChild@plt>
    5c3c:	4c 8b 44 24 08       	mov    0x8(%rsp),%r8
    5c41:	31 f6                	xor    %esi,%esi
    5c43:	48 8d 15 cd 70 00 00 	lea    0x70cd(%rip),%rdx        # cd17 <__func__.9605+0x337>
    5c4a:	49 89 c4             	mov    %rax,%r12
    5c4d:	48 89 c7             	mov    %rax,%rdi
    5c50:	4c 89 c1             	mov    %r8,%rcx
    5c53:	e8 58 d8 ff ff       	callq  34b0 <xmlNewChild@plt>
    5c58:	31 c9                	xor    %ecx,%ecx
    5c5a:	31 f6                	xor    %esi,%esi
    5c5c:	48 8d 15 bd 70 00 00 	lea    0x70bd(%rip),%rdx        # cd20 <__func__.9605+0x340>
    5c63:	4c 89 e7             	mov    %r12,%rdi
    5c66:	e8 45 d8 ff ff       	callq  34b0 <xmlNewChild@plt>
    5c6b:	31 ff                	xor    %edi,%edi
    5c6d:	49 89 c4             	mov    %rax,%r12
    5c70:	e8 bb 21 00 00       	callq  7e30 <sys_get_os_version_string>
    5c75:	31 f6                	xor    %esi,%esi
    5c77:	48 8d 15 af 70 00 00 	lea    0x70af(%rip),%rdx        # cd2d <__func__.9605+0x34d>
    5c7e:	4c 89 e7             	mov    %r12,%rdi
    5c81:	48 89 c1             	mov    %rax,%rcx
    5c84:	e8 27 d8 ff ff       	callq  34b0 <xmlNewChild@plt>
    5c89:	31 c0                	xor    %eax,%eax
    5c8b:	e8 d0 21 00 00       	callq  7e60 <sys_get_cpu_arch>
    5c90:	31 f6                	xor    %esi,%esi
    5c92:	48 8d 15 9c 70 00 00 	lea    0x709c(%rip),%rdx        # cd35 <__func__.9605+0x355>
    5c99:	4c 89 e7             	mov    %r12,%rdi
    5c9c:	48 89 c1             	mov    %rax,%rcx
    5c9f:	e8 0c d8 ff ff       	callq  34b0 <xmlNewChild@plt>
    5ca4:	bf 04 00 00 00       	mov    $0x4,%edi
    5ca9:	e8 82 21 00 00       	callq  7e30 <sys_get_os_version_string>
    5cae:	31 f6                	xor    %esi,%esi
    5cb0:	48 8d 15 83 70 00 00 	lea    0x7083(%rip),%rdx        # cd3a <__func__.9605+0x35a>
    5cb7:	4c 89 e7             	mov    %r12,%rdi
    5cba:	48 89 c1             	mov    %rax,%rcx
    5cbd:	e8 ee d7 ff ff       	callq  34b0 <xmlNewChild@plt>
    5cc2:	83 3d 97 a9 00 00 00 	cmpl   $0x0,0xa997(%rip)        # 10660 <gl_goodtime>
    5cc9:	74 08                	je     5cd3 <print_xml_report+0x1b5>
    5ccb:	4c 89 ef             	mov    %r13,%rdi
    5cce:	e8 8d 27 00 00       	callq  8460 <makeTimeInfoNode>
    5cd3:	e8 a8 23 00 00       	callq  8080 <sys_get_uuid>
    5cd8:	31 f6                	xor    %esi,%esi
    5cda:	48 8d 15 61 70 00 00 	lea    0x7061(%rip),%rdx        # cd42 <__func__.9605+0x362>
    5ce1:	4c 89 ef             	mov    %r13,%rdi
    5ce4:	48 89 c1             	mov    %rax,%rcx
    5ce7:	e8 c4 d7 ff ff       	callq  34b0 <xmlNewChild@plt>
    5cec:	31 c9                	xor    %ecx,%ecx
    5cee:	31 f6                	xor    %esi,%esi
    5cf0:	48 8d 15 50 70 00 00 	lea    0x7050(%rip),%rdx        # cd47 <__func__.9605+0x367>
    5cf7:	4c 89 ef             	mov    %r13,%rdi
    5cfa:	e8 b1 d7 ff ff       	callq  34b0 <xmlNewChild@plt>
    5cff:	48 63 3b             	movslq (%rbx),%rdi
    5d02:	49 89 c4             	mov    %rax,%r12
    5d05:	e8 96 26 00 00       	callq  83a0 <unsignedIntToXmlChar>
    5d0a:	31 f6                	xor    %esi,%esi
    5d0c:	48 8d 15 3b 70 00 00 	lea    0x703b(%rip),%rdx        # cd4e <__func__.9605+0x36e>
    5d13:	4c 89 e7             	mov    %r12,%rdi
    5d16:	48 89 c1             	mov    %rax,%rcx
    5d19:	e8 92 d7 ff ff       	callq  34b0 <xmlNewChild@plt>
    5d1e:	48 63 7b 04          	movslq 0x4(%rbx),%rdi
    5d22:	e8 79 26 00 00       	callq  83a0 <unsignedIntToXmlChar>
    5d27:	31 f6                	xor    %esi,%esi
    5d29:	48 8d 15 73 50 00 00 	lea    0x5073(%rip),%rdx        # ada3 <_IO_stdin_used+0xda3>
    5d30:	4c 89 e7             	mov    %r12,%rdi
    5d33:	48 89 c1             	mov    %rax,%rcx
    5d36:	e8 75 d7 ff ff       	callq  34b0 <xmlNewChild@plt>
    5d3b:	48 63 7b 08          	movslq 0x8(%rbx),%rdi
    5d3f:	e8 5c 26 00 00       	callq  83a0 <unsignedIntToXmlChar>
    5d44:	31 f6                	xor    %esi,%esi
    5d46:	48 8d 15 77 50 00 00 	lea    0x5077(%rip),%rdx        # adc4 <_IO_stdin_used+0xdc4>
    5d4d:	4c 89 e7             	mov    %r12,%rdi
    5d50:	48 89 c1             	mov    %rax,%rcx
    5d53:	e8 58 d7 ff ff       	callq  34b0 <xmlNewChild@plt>
    5d58:	48 63 7b 54          	movslq 0x54(%rbx),%rdi
    5d5c:	e8 df 25 00 00       	callq  8340 <signedIntToXmlChar>
    5d61:	31 f6                	xor    %esi,%esi
    5d63:	48 8d 15 0c 51 00 00 	lea    0x510c(%rip),%rdx        # ae76 <_IO_stdin_used+0xe76>
    5d6a:	4c 89 e7             	mov    %r12,%rdi
    5d6d:	48 89 c1             	mov    %rax,%rcx
    5d70:	e8 3b d7 ff ff       	callq  34b0 <xmlNewChild@plt>
    5d75:	f2 0f 10 43 30       	movsd  0x30(%rbx),%xmm0
    5d7a:	e8 41 25 00 00       	callq  82c0 <floatToXmlChar>
    5d7f:	31 f6                	xor    %esi,%esi
    5d81:	48 8d 15 82 50 00 00 	lea    0x5082(%rip),%rdx        # ae0a <_IO_stdin_used+0xe0a>
    5d88:	4c 89 e7             	mov    %r12,%rdi
    5d8b:	48 89 c1             	mov    %rax,%rcx
    5d8e:	e8 1d d7 ff ff       	callq  34b0 <xmlNewChild@plt>
    5d93:	48 63 7b 38          	movslq 0x38(%rbx),%rdi
    5d97:	e8 04 26 00 00       	callq  83a0 <unsignedIntToXmlChar>
    5d9c:	31 f6                	xor    %esi,%esi
    5d9e:	48 8d 15 8c 50 00 00 	lea    0x508c(%rip),%rdx        # ae31 <_IO_stdin_used+0xe31>
    5da5:	4c 89 e7             	mov    %r12,%rdi
    5da8:	48 89 c1             	mov    %rax,%rcx
    5dab:	e8 00 d7 ff ff       	callq  34b0 <xmlNewChild@plt>
    5db0:	48 63 7b 3c          	movslq 0x3c(%rbx),%rdi
    5db4:	e8 e7 25 00 00       	callq  83a0 <unsignedIntToXmlChar>
    5db9:	31 f6                	xor    %esi,%esi
    5dbb:	48 8d 15 7b 50 00 00 	lea    0x507b(%rip),%rdx        # ae3d <_IO_stdin_used+0xe3d>
    5dc2:	4c 89 e7             	mov    %r12,%rdi
    5dc5:	48 89 c1             	mov    %rax,%rcx
    5dc8:	e8 e3 d6 ff ff       	callq  34b0 <xmlNewChild@plt>
    5dcd:	48 63 7b 40          	movslq 0x40(%rbx),%rdi
    5dd1:	e8 ca 25 00 00       	callq  83a0 <unsignedIntToXmlChar>
    5dd6:	31 f6                	xor    %esi,%esi
    5dd8:	48 8d 15 64 50 00 00 	lea    0x5064(%rip),%rdx        # ae43 <_IO_stdin_used+0xe43>
    5ddf:	4c 89 e7             	mov    %r12,%rdi
    5de2:	48 89 c1             	mov    %rax,%rcx
    5de5:	e8 c6 d6 ff ff       	callq  34b0 <xmlNewChild@plt>
    5dea:	48 63 7b 50          	movslq 0x50(%rbx),%rdi
    5dee:	e8 ad 25 00 00       	callq  83a0 <unsignedIntToXmlChar>
    5df3:	48 8d 15 c7 50 00 00 	lea    0x50c7(%rip),%rdx        # aec1 <_IO_stdin_used+0xec1>
    5dfa:	31 f6                	xor    %esi,%esi
    5dfc:	4c 89 e7             	mov    %r12,%rdi
    5dff:	48 89 c1             	mov    %rax,%rcx
    5e02:	e8 a9 d6 ff ff       	callq  34b0 <xmlNewChild@plt>
    5e07:	48 63 7b 60          	movslq 0x60(%rbx),%rdi
    5e0b:	e8 30 25 00 00       	callq  8340 <signedIntToXmlChar>
    5e10:	48 8d 15 51 50 00 00 	lea    0x5051(%rip),%rdx        # ae68 <_IO_stdin_used+0xe68>
    5e17:	31 f6                	xor    %esi,%esi
    5e19:	4c 89 e7             	mov    %r12,%rdi
    5e1c:	48 89 c1             	mov    %rax,%rcx
    5e1f:	e8 8c d6 ff ff       	callq  34b0 <xmlNewChild@plt>
    5e24:	48 63 7b 64          	movslq 0x64(%rbx),%rdi
    5e28:	e8 13 25 00 00       	callq  8340 <signedIntToXmlChar>
    5e2d:	48 8d 15 28 50 00 00 	lea    0x5028(%rip),%rdx        # ae5c <_IO_stdin_used+0xe5c>
    5e34:	31 f6                	xor    %esi,%esi
    5e36:	4c 89 e7             	mov    %r12,%rdi
    5e39:	48 89 c1             	mov    %rax,%rcx
    5e3c:	e8 6f d6 ff ff       	callq  34b0 <xmlNewChild@plt>
    5e41:	48 8b 43 18          	mov    0x18(%rbx),%rax
    5e45:	48 85 c0             	test   %rax,%rax
    5e48:	74 1a                	je     5e64 <print_xml_report+0x346>
    5e4a:	48 8b 48 20          	mov    0x20(%rax),%rcx
    5e4e:	48 85 c9             	test   %rcx,%rcx
    5e51:	74 11                	je     5e64 <print_xml_report+0x346>
    5e53:	48 8d 15 a0 4f 00 00 	lea    0x4fa0(%rip),%rdx        # adfa <_IO_stdin_used+0xdfa>
    5e5a:	31 f6                	xor    %esi,%esi
    5e5c:	4c 89 e7             	mov    %r12,%rdi
    5e5f:	e8 4c d6 ff ff       	callq  34b0 <xmlNewChild@plt>
    5e64:	48 8b 43 10          	mov    0x10(%rbx),%rax
    5e68:	48 85 c0             	test   %rax,%rax
    5e6b:	74 1a                	je     5e87 <print_xml_report+0x369>
    5e6d:	48 8b 48 20          	mov    0x20(%rax),%rcx
    5e71:	48 85 c9             	test   %rcx,%rcx
    5e74:	74 11                	je     5e87 <print_xml_report+0x369>
    5e76:	48 8d 15 6f 4f 00 00 	lea    0x4f6f(%rip),%rdx        # adec <_IO_stdin_used+0xdec>
    5e7d:	31 f6                	xor    %esi,%esi
    5e7f:	4c 89 e7             	mov    %r12,%rdi
    5e82:	e8 29 d6 ff ff       	callq  34b0 <xmlNewChild@plt>
    5e87:	48 8b 43 48          	mov    0x48(%rbx),%rax
    5e8b:	48 85 c0             	test   %rax,%rax
    5e8e:	74 1a                	je     5eaa <print_xml_report+0x38c>
    5e90:	48 8b 48 18          	mov    0x18(%rax),%rcx
    5e94:	48 85 c9             	test   %rcx,%rcx
    5e97:	74 11                	je     5eaa <print_xml_report+0x38c>
    5e99:	48 8d 15 b7 6e 00 00 	lea    0x6eb7(%rip),%rdx        # cd57 <__func__.9605+0x377>
    5ea0:	31 f6                	xor    %esi,%esi
    5ea2:	4c 89 e7             	mov    %r12,%rdi
    5ea5:	e8 06 d6 ff ff       	callq  34b0 <xmlNewChild@plt>
    5eaa:	45 85 f6             	test   %r14d,%r14d
    5ead:	74 18                	je     5ec7 <print_xml_report+0x3a9>
    5eaf:	48 8d 0d a7 6e 00 00 	lea    0x6ea7(%rip),%rcx        # cd5d <__func__.9605+0x37d>
    5eb6:	48 8d 15 a2 6e 00 00 	lea    0x6ea2(%rip),%rdx        # cd5f <__func__.9605+0x37f>
    5ebd:	31 f6                	xor    %esi,%esi
    5ebf:	4c 89 ef             	mov    %r13,%rdi
    5ec2:	e8 e9 d5 ff ff       	callq  34b0 <xmlNewChild@plt>
    5ec7:	4c 8d 6c 24 20       	lea    0x20(%rsp),%r13
    5ecc:	4c 89 ef             	mov    %r13,%rdi
    5ecf:	e8 ec 12 00 00       	callq  71c0 <__cpuid_obtain_brand_string>
    5ed4:	31 c9                	xor    %ecx,%ecx
    5ed6:	48 8d 15 8e 6e 00 00 	lea    0x6e8e(%rip),%rdx        # cd6b <__func__.9605+0x38b>
    5edd:	31 f6                	xor    %esi,%esi
    5edf:	48 89 ef             	mov    %rbp,%rdi
    5ee2:	85 c0                	test   %eax,%eax
    5ee4:	74 1e                	je     5f04 <print_xml_report+0x3e6>
    5ee6:	e8 c5 d5 ff ff       	callq  34b0 <xmlNewChild@plt>
    5eeb:	4c 89 e9             	mov    %r13,%rcx
    5eee:	48 8d 15 83 6e 00 00 	lea    0x6e83(%rip),%rdx        # cd78 <__func__.9605+0x398>
    5ef5:	31 f6                	xor    %esi,%esi
    5ef7:	48 89 c7             	mov    %rax,%rdi
    5efa:	49 89 c4             	mov    %rax,%r12
    5efd:	e8 ae d5 ff ff       	callq  34b0 <xmlNewChild@plt>
    5f02:	eb 20                	jmp    5f24 <print_xml_report+0x406>
    5f04:	e8 a7 d5 ff ff       	callq  34b0 <xmlNewChild@plt>
    5f09:	48 8d 0d 72 6e 00 00 	lea    0x6e72(%rip),%rcx        # cd82 <__func__.9605+0x3a2>
    5f10:	48 8d 15 61 6e 00 00 	lea    0x6e61(%rip),%rdx        # cd78 <__func__.9605+0x398>
    5f17:	31 f6                	xor    %esi,%esi
    5f19:	48 89 c7             	mov    %rax,%rdi
    5f1c:	49 89 c4             	mov    %rax,%r12
    5f1f:	e8 8c d5 ff ff       	callq  34b0 <xmlNewChild@plt>
    5f24:	8b 3d 86 be 00 00    	mov    0xbe86(%rip),%edi        # 11db0 <freq_khz>
    5f2a:	45 31 ed             	xor    %r13d,%r13d
    5f2d:	4c 8d 35 6c 6e 00 00 	lea    0x6e6c(%rip),%r14        # cda0 <__func__.9605+0x3c0>
    5f34:	e8 67 24 00 00       	callq  83a0 <unsignedIntToXmlChar>
    5f39:	48 8d 15 4e 6e 00 00 	lea    0x6e4e(%rip),%rdx        # cd8e <__func__.9605+0x3ae>
    5f40:	31 f6                	xor    %esi,%esi
    5f42:	4c 89 e7             	mov    %r12,%rdi
    5f45:	48 89 c1             	mov    %rax,%rcx
    5f48:	e8 63 d5 ff ff       	callq  34b0 <xmlNewChild@plt>
    5f4d:	8b 05 15 c1 00 00    	mov    0xc115(%rip),%eax        # 12068 <gl_tlb_info_buf_len>
    5f53:	31 c9                	xor    %ecx,%ecx
    5f55:	31 f6                	xor    %esi,%esi
    5f57:	48 8d 15 39 6e 00 00 	lea    0x6e39(%rip),%rdx        # cd97 <__func__.9605+0x3b7>
    5f5e:	4c 89 e7             	mov    %r12,%rdi
    5f61:	89 44 24 08          	mov    %eax,0x8(%rsp)
    5f65:	e8 46 d5 ff ff       	callq  34b0 <xmlNewChild@plt>
    5f6a:	49 89 c1             	mov    %rax,%r9
    5f6d:	44 39 6c 24 08       	cmp    %r13d,0x8(%rsp)
    5f72:	7e 5d                	jle    5fd1 <print_xml_report+0x4b3>
    5f74:	4c 89 cf             	mov    %r9,%rdi
    5f77:	31 c9                	xor    %ecx,%ecx
    5f79:	4c 89 f2             	mov    %r14,%rdx
    5f7c:	31 f6                	xor    %esi,%esi
    5f7e:	4c 89 4c 24 18       	mov    %r9,0x18(%rsp)
    5f83:	e8 28 d5 ff ff       	callq  34b0 <xmlNewChild@plt>
    5f88:	4c 89 ef             	mov    %r13,%rdi
    5f8b:	49 89 c7             	mov    %rax,%r15
    5f8e:	e8 0d 24 00 00       	callq  83a0 <unsignedIntToXmlChar>
    5f93:	48 8d 35 49 6c 00 00 	lea    0x6c49(%rip),%rsi        # cbe3 <__func__.9605+0x203>
    5f9a:	4c 89 ff             	mov    %r15,%rdi
    5f9d:	48 89 c2             	mov    %rax,%rdx
    5fa0:	e8 cb d6 ff ff       	callq  3670 <xmlNewProp@plt>
    5fa5:	44 89 ef             	mov    %r13d,%edi
    5fa8:	49 ff c5             	inc    %r13
    5fab:	e8 50 13 00 00       	callq  7300 <get_tlb_info>
    5fb0:	0f b6 f8             	movzbl %al,%edi
    5fb3:	e8 48 24 00 00       	callq  8400 <byteToXmlChar>
    5fb8:	48 8d 35 85 6d 00 00 	lea    0x6d85(%rip),%rsi        # cd44 <__func__.9605+0x364>
    5fbf:	4c 89 ff             	mov    %r15,%rdi
    5fc2:	48 89 c2             	mov    %rax,%rdx
    5fc5:	e8 a6 d6 ff ff       	callq  3670 <xmlNewProp@plt>
    5fca:	4c 8b 4c 24 18       	mov    0x18(%rsp),%r9
    5fcf:	eb 9c                	jmp    5f6d <print_xml_report+0x44f>
    5fd1:	44 8b 3d 68 c1 00 00 	mov    0xc168(%rip),%r15d        # 12140 <gl_det_cache_info_len>
    5fd8:	31 c9                	xor    %ecx,%ecx
    5fda:	31 f6                	xor    %esi,%esi
    5fdc:	4c 89 e7             	mov    %r12,%rdi
    5fdf:	48 8d 15 c3 6d 00 00 	lea    0x6dc3(%rip),%rdx        # cda9 <__func__.9605+0x3c9>
    5fe6:	e8 c5 d4 ff ff       	callq  34b0 <xmlNewChild@plt>
    5feb:	49 89 c5             	mov    %rax,%r13
    5fee:	45 85 ff             	test   %r15d,%r15d
    5ff1:	75 1b                	jne    600e <print_xml_report+0x4f0>
    5ff3:	48 8d 15 93 6c 00 00 	lea    0x6c93(%rip),%rdx        # cc8d <__func__.9605+0x2ad>
    5ffa:	48 8d 35 b3 6d 00 00 	lea    0x6db3(%rip),%rsi        # cdb4 <__func__.9605+0x3d4>
    6001:	48 89 c7             	mov    %rax,%rdi
    6004:	e8 67 d6 ff ff       	callq  3670 <xmlNewProp@plt>
    6009:	e9 57 01 00 00       	jmpq   6165 <print_xml_report+0x647>
    600e:	48 8d 15 48 6d 00 00 	lea    0x6d48(%rip),%rdx        # cd5d <__func__.9605+0x37d>
    6015:	48 8d 35 98 6d 00 00 	lea    0x6d98(%rip),%rsi        # cdb4 <__func__.9605+0x3d4>
    601c:	48 89 c7             	mov    %rax,%rdi
    601f:	45 31 e4             	xor    %r12d,%r12d
    6022:	e8 49 d6 ff ff       	callq  3670 <xmlNewProp@plt>
    6027:	4c 8d 0d 94 6d 00 00 	lea    0x6d94(%rip),%r9        # cdc2 <__func__.9605+0x3e2>
    602e:	45 39 e7             	cmp    %r12d,%r15d
    6031:	0f 8e 2e 01 00 00    	jle    6165 <print_xml_report+0x647>
    6037:	4c 89 ca             	mov    %r9,%rdx
    603a:	31 c9                	xor    %ecx,%ecx
    603c:	31 f6                	xor    %esi,%esi
    603e:	4c 89 ef             	mov    %r13,%rdi
    6041:	e8 6a d4 ff ff       	callq  34b0 <xmlNewChild@plt>
    6046:	44 89 e7             	mov    %r12d,%edi
    6049:	49 89 c6             	mov    %rax,%r14
    604c:	e8 cf 12 00 00       	callq  7320 <get_cache_type>
    6051:	48 8d 35 c9 6b 00 00 	lea    0x6bc9(%rip),%rsi        # cc21 <__func__.9605+0x241>
    6058:	4c 89 f7             	mov    %r14,%rdi
    605b:	48 89 c2             	mov    %rax,%rdx
    605e:	e8 0d d6 ff ff       	callq  3670 <xmlNewProp@plt>
    6063:	be 04 00 00 00       	mov    $0x4,%esi
    6068:	44 89 e7             	mov    %r12d,%edi
    606b:	e8 20 13 00 00       	callq  7390 <get_cache_info>
    6070:	48 63 f8             	movslq %eax,%rdi
    6073:	e8 c8 22 00 00       	callq  8340 <signedIntToXmlChar>
    6078:	48 8d 15 49 6d 00 00 	lea    0x6d49(%rip),%rdx        # cdc8 <__func__.9605+0x3e8>
    607f:	31 f6                	xor    %esi,%esi
    6081:	4c 89 f7             	mov    %r14,%rdi
    6084:	48 89 c1             	mov    %rax,%rcx
    6087:	e8 24 d4 ff ff       	callq  34b0 <xmlNewChild@plt>
    608c:	be 05 00 00 00       	mov    $0x5,%esi
    6091:	44 89 e7             	mov    %r12d,%edi
    6094:	e8 f7 12 00 00       	callq  7390 <get_cache_info>
    6099:	48 63 f8             	movslq %eax,%rdi
    609c:	e8 9f 22 00 00       	callq  8340 <signedIntToXmlChar>
    60a1:	48 8d 15 26 6d 00 00 	lea    0x6d26(%rip),%rdx        # cdce <__func__.9605+0x3ee>
    60a8:	31 f6                	xor    %esi,%esi
    60aa:	4c 89 f7             	mov    %r14,%rdi
    60ad:	48 89 c1             	mov    %rax,%rcx
    60b0:	e8 fb d3 ff ff       	callq  34b0 <xmlNewChild@plt>
    60b5:	31 f6                	xor    %esi,%esi
    60b7:	44 89 e7             	mov    %r12d,%edi
    60ba:	e8 d1 12 00 00       	callq  7390 <get_cache_info>
    60bf:	48 63 f8             	movslq %eax,%rdi
    60c2:	e8 79 22 00 00       	callq  8340 <signedIntToXmlChar>
    60c7:	48 8d 15 09 6d 00 00 	lea    0x6d09(%rip),%rdx        # cdd7 <__func__.9605+0x3f7>
    60ce:	31 f6                	xor    %esi,%esi
    60d0:	4c 89 f7             	mov    %r14,%rdi
    60d3:	48 89 c1             	mov    %rax,%rcx
    60d6:	e8 d5 d3 ff ff       	callq  34b0 <xmlNewChild@plt>
    60db:	be 01 00 00 00       	mov    $0x1,%esi
    60e0:	44 89 e7             	mov    %r12d,%edi
    60e3:	e8 a8 12 00 00       	callq  7390 <get_cache_info>
    60e8:	48 63 f8             	movslq %eax,%rdi
    60eb:	e8 50 22 00 00       	callq  8340 <signedIntToXmlChar>
    60f0:	48 8d 15 e5 6c 00 00 	lea    0x6ce5(%rip),%rdx        # cddc <__func__.9605+0x3fc>
    60f7:	31 f6                	xor    %esi,%esi
    60f9:	4c 89 f7             	mov    %r14,%rdi
    60fc:	48 89 c1             	mov    %rax,%rcx
    60ff:	e8 ac d3 ff ff       	callq  34b0 <xmlNewChild@plt>
    6104:	be 02 00 00 00       	mov    $0x2,%esi
    6109:	44 89 e7             	mov    %r12d,%edi
    610c:	e8 7f 12 00 00       	callq  7390 <get_cache_info>
    6111:	48 63 f8             	movslq %eax,%rdi
    6114:	e8 27 22 00 00       	callq  8340 <signedIntToXmlChar>
    6119:	48 8d 15 c5 6c 00 00 	lea    0x6cc5(%rip),%rdx        # cde5 <__func__.9605+0x405>
    6120:	31 f6                	xor    %esi,%esi
    6122:	4c 89 f7             	mov    %r14,%rdi
    6125:	48 89 c1             	mov    %rax,%rcx
    6128:	e8 83 d3 ff ff       	callq  34b0 <xmlNewChild@plt>
    612d:	be 03 00 00 00       	mov    $0x3,%esi
    6132:	44 89 e7             	mov    %r12d,%edi
    6135:	41 ff c4             	inc    %r12d
    6138:	e8 53 12 00 00       	callq  7390 <get_cache_info>
    613d:	48 63 f8             	movslq %eax,%rdi
    6140:	e8 fb 21 00 00       	callq  8340 <signedIntToXmlChar>
    6145:	48 8d 15 a4 6c 00 00 	lea    0x6ca4(%rip),%rdx        # cdf0 <__func__.9605+0x410>
    614c:	31 f6                	xor    %esi,%esi
    614e:	4c 89 f7             	mov    %r14,%rdi
    6151:	48 89 c1             	mov    %rax,%rcx
    6154:	e8 57 d3 ff ff       	callq  34b0 <xmlNewChild@plt>
    6159:	4c 8d 0d 62 6c 00 00 	lea    0x6c62(%rip),%r9        # cdc2 <__func__.9605+0x3e2>
    6160:	e9 c9 fe ff ff       	jmpq   602e <print_xml_report+0x510>
    6165:	31 c9                	xor    %ecx,%ecx
    6167:	48 8d 15 87 6c 00 00 	lea    0x6c87(%rip),%rdx        # cdf5 <__func__.9605+0x415>
    616e:	31 f6                	xor    %esi,%esi
    6170:	48 89 ef             	mov    %rbp,%rdi
    6173:	e8 38 d3 ff ff       	callq  34b0 <xmlNewChild@plt>
    6178:	45 31 f6             	xor    %r14d,%r14d
    617b:	48 89 44 24 18       	mov    %rax,0x18(%rsp)
    6180:	44 39 35 e9 bc 00 00 	cmp    %r14d,0xbce9(%rip)        # 11e70 <params+0x50>
    6187:	0f 8e 65 04 00 00    	jle    65f2 <print_xml_report+0xad4>
    618d:	44 89 f7             	mov    %r14d,%edi
    6190:	e8 7b 09 00 00       	callq  6b10 <get_result>
    6195:	49 89 c7             	mov    %rax,%r15
    6198:	8b 05 12 bc 00 00    	mov    0xbc12(%rip),%eax        # 11db0 <freq_khz>
    619e:	49 8b 17             	mov    (%r15),%rdx
    61a1:	f3 48 0f 2a d8       	cvtsi2ss %rax,%xmm3
    61a6:	48 85 d2             	test   %rdx,%rdx
    61a9:	78 07                	js     61b2 <print_xml_report+0x694>
    61ab:	f3 48 0f 2a c2       	cvtsi2ss %rdx,%xmm0
    61b0:	eb 15                	jmp    61c7 <print_xml_report+0x6a9>
    61b2:	48 89 d0             	mov    %rdx,%rax
    61b5:	83 e2 01             	and    $0x1,%edx
    61b8:	48 d1 e8             	shr    %rax
    61bb:	48 09 d0             	or     %rdx,%rax
    61be:	f3 48 0f 2a c0       	cvtsi2ss %rax,%xmm0
    61c3:	f3 0f 58 c0          	addss  %xmm0,%xmm0
    61c7:	49 8b 57 08          	mov    0x8(%r15),%rdx
    61cb:	48 85 d2             	test   %rdx,%rdx
    61ce:	78 07                	js     61d7 <print_xml_report+0x6b9>
    61d0:	f3 48 0f 2a ca       	cvtsi2ss %rdx,%xmm1
    61d5:	eb 15                	jmp    61ec <print_xml_report+0x6ce>
    61d7:	48 89 d0             	mov    %rdx,%rax
    61da:	83 e2 01             	and    $0x1,%edx
    61dd:	48 d1 e8             	shr    %rax
    61e0:	48 09 d0             	or     %rdx,%rax
    61e3:	f3 48 0f 2a c8       	cvtsi2ss %rax,%xmm1
    61e8:	f3 0f 58 c9          	addss  %xmm1,%xmm1
    61ec:	f3 0f 5e c1          	divss  %xmm1,%xmm0
    61f0:	f3 0f 10 0d f0 4d 00 	movss  0x4df0(%rip),%xmm1        # afe8 <args_doc_str.10218+0x10>
    61f7:	00 
    61f8:	49 8b 57 20          	mov    0x20(%r15),%rdx
    61fc:	f3 0f 59 c8          	mulss  %xmm0,%xmm1
    6200:	f3 0f 5e cb          	divss  %xmm3,%xmm1
    6204:	48 85 d2             	test   %rdx,%rdx
    6207:	78 07                	js     6210 <print_xml_report+0x6f2>
    6209:	f3 48 0f 2a c2       	cvtsi2ss %rdx,%xmm0
    620e:	eb 15                	jmp    6225 <print_xml_report+0x707>
    6210:	48 89 d0             	mov    %rdx,%rax
    6213:	83 e2 01             	and    $0x1,%edx
    6216:	48 d1 e8             	shr    %rax
    6219:	48 09 d0             	or     %rdx,%rax
    621c:	f3 48 0f 2a c0       	cvtsi2ss %rax,%xmm0
    6221:	f3 0f 58 c0          	addss  %xmm0,%xmm0
    6225:	49 8b 57 28          	mov    0x28(%r15),%rdx
    6229:	48 85 d2             	test   %rdx,%rdx
    622c:	78 07                	js     6235 <print_xml_report+0x717>
    622e:	f3 48 0f 2a d2       	cvtsi2ss %rdx,%xmm2
    6233:	eb 15                	jmp    624a <print_xml_report+0x72c>
    6235:	48 89 d0             	mov    %rdx,%rax
    6238:	83 e2 01             	and    $0x1,%edx
    623b:	48 d1 e8             	shr    %rax
    623e:	48 09 d0             	or     %rdx,%rax
    6241:	f3 48 0f 2a d0       	cvtsi2ss %rax,%xmm2
    6246:	f3 0f 58 d2          	addss  %xmm2,%xmm2
    624a:	f3 0f 5e c2          	divss  %xmm2,%xmm0
    624e:	48 8b 7c 24 18       	mov    0x18(%rsp),%rdi
    6253:	31 c9                	xor    %ecx,%ecx
    6255:	31 f6                	xor    %esi,%esi
    6257:	48 8d 15 9e 6b 00 00 	lea    0x6b9e(%rip),%rdx        # cdfc <__func__.9605+0x41c>
    625e:	49 ff c6             	inc    %r14
    6261:	f3 0f 59 05 7f 4d 00 	mulss  0x4d7f(%rip),%xmm0        # afe8 <args_doc_str.10218+0x10>
    6268:	00 
    6269:	f3 0f 5e c3          	divss  %xmm3,%xmm0
    626d:	f3 0f 5c c8          	subss  %xmm0,%xmm1
    6271:	f3 0f 11 4c 24 08    	movss  %xmm1,0x8(%rsp)
    6277:	e8 34 d2 ff ff       	callq  34b0 <xmlNewChild@plt>
    627c:	4c 89 f7             	mov    %r14,%rdi
    627f:	49 89 c4             	mov    %rax,%r12
    6282:	e8 19 21 00 00       	callq  83a0 <unsignedIntToXmlChar>
    6287:	48 8d 35 7c 6b 00 00 	lea    0x6b7c(%rip),%rsi        # ce0a <__func__.9605+0x42a>
    628e:	4c 89 e7             	mov    %r12,%rdi
    6291:	48 89 c2             	mov    %rax,%rdx
    6294:	e8 d7 d3 ff ff       	callq  3670 <xmlNewProp@plt>
    6299:	31 c9                	xor    %ecx,%ecx
    629b:	48 8d 15 73 6b 00 00 	lea    0x6b73(%rip),%rdx        # ce15 <__func__.9605+0x435>
    62a2:	31 f6                	xor    %esi,%esi
    62a4:	4c 89 e7             	mov    %r12,%rdi
    62a7:	e8 04 d2 ff ff       	callq  34b0 <xmlNewChild@plt>
    62ac:	f3 0f 5a 44 24 08    	cvtss2sd 0x8(%rsp),%xmm0
    62b2:	49 89 c5             	mov    %rax,%r13
    62b5:	e8 06 20 00 00       	callq  82c0 <floatToXmlChar>
    62ba:	48 8d 15 62 6b 00 00 	lea    0x6b62(%rip),%rdx        # ce23 <__func__.9605+0x443>
    62c1:	31 f6                	xor    %esi,%esi
    62c3:	4c 89 ef             	mov    %r13,%rdi
    62c6:	48 89 c1             	mov    %rax,%rcx
    62c9:	e8 e2 d1 ff ff       	callq  34b0 <xmlNewChild@plt>
    62ce:	8b 05 dc ba 00 00    	mov    0xbadc(%rip),%eax        # 11db0 <freq_khz>
    62d4:	f3 48 0f 2a c0       	cvtsi2ss %rax,%xmm0
    62d9:	f3 0f 59 44 24 08    	mulss  0x8(%rsp),%xmm0
    62df:	f3 0f 5e 05 01 4d 00 	divss  0x4d01(%rip),%xmm0        # afe8 <args_doc_str.10218+0x10>
    62e6:	00 
    62e7:	f3 0f 2c f8          	cvttss2si %xmm0,%edi
    62eb:	48 63 ff             	movslq %edi,%rdi
    62ee:	e8 4d 20 00 00       	callq  8340 <signedIntToXmlChar>
    62f3:	4c 89 ef             	mov    %r13,%rdi
    62f6:	48 8d 15 30 6b 00 00 	lea    0x6b30(%rip),%rdx        # ce2d <__func__.9605+0x44d>
    62fd:	31 f6                	xor    %esi,%esi
    62ff:	48 89 c1             	mov    %rax,%rcx
    6302:	e8 a9 d1 ff ff       	callq  34b0 <xmlNewChild@plt>
    6307:	31 c9                	xor    %ecx,%ecx
    6309:	48 8d 15 28 6b 00 00 	lea    0x6b28(%rip),%rdx        # ce38 <__func__.9605+0x458>
    6310:	31 f6                	xor    %esi,%esi
    6312:	4c 89 e7             	mov    %r12,%rdi
    6315:	e8 96 d1 ff ff       	callq  34b0 <xmlNewChild@plt>
    631a:	48 8d 15 26 6b 00 00 	lea    0x6b26(%rip),%rdx        # ce47 <__func__.9605+0x467>
    6321:	31 c9                	xor    %ecx,%ecx
    6323:	31 f6                	xor    %esi,%esi
    6325:	48 89 c7             	mov    %rax,%rdi
    6328:	49 89 c5             	mov    %rax,%r13
    632b:	e8 80 d1 ff ff       	callq  34b0 <xmlNewChild@plt>
    6330:	49 8b 17             	mov    (%r15),%rdx
    6333:	49 89 c1             	mov    %rax,%r9
    6336:	48 85 d2             	test   %rdx,%rdx
    6339:	78 07                	js     6342 <print_xml_report+0x824>
    633b:	f3 48 0f 2a c2       	cvtsi2ss %rdx,%xmm0
    6340:	eb 15                	jmp    6357 <print_xml_report+0x839>
    6342:	48 89 d0             	mov    %rdx,%rax
    6345:	83 e2 01             	and    $0x1,%edx
    6348:	48 d1 e8             	shr    %rax
    634b:	48 09 d0             	or     %rdx,%rax
    634e:	f3 48 0f 2a c0       	cvtsi2ss %rax,%xmm0
    6353:	f3 0f 58 c0          	addss  %xmm0,%xmm0
    6357:	49 8b 57 08          	mov    0x8(%r15),%rdx
    635b:	48 85 d2             	test   %rdx,%rdx
    635e:	78 07                	js     6367 <print_xml_report+0x849>
    6360:	f3 48 0f 2a ca       	cvtsi2ss %rdx,%xmm1
    6365:	eb 15                	jmp    637c <print_xml_report+0x85e>
    6367:	48 89 d0             	mov    %rdx,%rax
    636a:	83 e2 01             	and    $0x1,%edx
    636d:	48 d1 e8             	shr    %rax
    6370:	48 09 d0             	or     %rdx,%rax
    6373:	f3 48 0f 2a c8       	cvtsi2ss %rax,%xmm1
    6378:	f3 0f 58 c9          	addss  %xmm1,%xmm1
    637c:	f3 0f 5e c1          	divss  %xmm1,%xmm0
    6380:	8b 05 2a ba 00 00    	mov    0xba2a(%rip),%eax        # 11db0 <freq_khz>
    6386:	4c 89 4c 24 08       	mov    %r9,0x8(%rsp)
    638b:	f3 48 0f 2a c8       	cvtsi2ss %rax,%xmm1
    6390:	f3 0f 59 05 50 4c 00 	mulss  0x4c50(%rip),%xmm0        # afe8 <args_doc_str.10218+0x10>
    6397:	00 
    6398:	f3 0f 5e c1          	divss  %xmm1,%xmm0
    639c:	f3 0f 5a c0          	cvtss2sd %xmm0,%xmm0
    63a0:	e8 1b 1f 00 00       	callq  82c0 <floatToXmlChar>
    63a5:	4c 8b 4c 24 08       	mov    0x8(%rsp),%r9
    63aa:	31 f6                	xor    %esi,%esi
    63ac:	48 89 c1             	mov    %rax,%rcx
    63af:	48 8d 15 a1 6a 00 00 	lea    0x6aa1(%rip),%rdx        # ce57 <__func__.9605+0x477>
    63b6:	4c 89 cf             	mov    %r9,%rdi
    63b9:	e8 f2 d0 ff ff       	callq  34b0 <xmlNewChild@plt>
    63be:	49 8b 07             	mov    (%r15),%rax
    63c1:	31 d2                	xor    %edx,%edx
    63c3:	49 f7 77 08          	divq   0x8(%r15)
    63c7:	48 63 f8             	movslq %eax,%rdi
    63ca:	e8 71 1f 00 00       	callq  8340 <signedIntToXmlChar>
    63cf:	4c 8b 4c 24 08       	mov    0x8(%rsp),%r9
    63d4:	48 8d 15 87 6a 00 00 	lea    0x6a87(%rip),%rdx        # ce62 <__func__.9605+0x482>
    63db:	31 f6                	xor    %esi,%esi
    63dd:	48 89 c1             	mov    %rax,%rcx
    63e0:	4c 89 cf             	mov    %r9,%rdi
    63e3:	e8 c8 d0 ff ff       	callq  34b0 <xmlNewChild@plt>
    63e8:	49 8b 7f 08          	mov    0x8(%r15),%rdi
    63ec:	e8 af 1f 00 00       	callq  83a0 <unsignedIntToXmlChar>
    63f1:	48 8d 15 76 6a 00 00 	lea    0x6a76(%rip),%rdx        # ce6e <__func__.9605+0x48e>
    63f8:	31 f6                	xor    %esi,%esi
    63fa:	4c 89 ef             	mov    %r13,%rdi
    63fd:	48 89 c1             	mov    %rax,%rcx
    6400:	e8 ab d0 ff ff       	callq  34b0 <xmlNewChild@plt>
    6405:	48 8d 15 72 6a 00 00 	lea    0x6a72(%rip),%rdx        # ce7e <__func__.9605+0x49e>
    640c:	31 c9                	xor    %ecx,%ecx
    640e:	31 f6                	xor    %esi,%esi
    6410:	4c 89 ef             	mov    %r13,%rdi
    6413:	e8 98 d0 ff ff       	callq  34b0 <xmlNewChild@plt>
    6418:	49 8b 57 20          	mov    0x20(%r15),%rdx
    641c:	49 89 c1             	mov    %rax,%r9
    641f:	48 85 d2             	test   %rdx,%rdx
    6422:	78 07                	js     642b <print_xml_report+0x90d>
    6424:	f3 48 0f 2a c2       	cvtsi2ss %rdx,%xmm0
    6429:	eb 15                	jmp    6440 <print_xml_report+0x922>
    642b:	48 89 d0             	mov    %rdx,%rax
    642e:	83 e2 01             	and    $0x1,%edx
    6431:	48 d1 e8             	shr    %rax
    6434:	48 09 d0             	or     %rdx,%rax
    6437:	f3 48 0f 2a c0       	cvtsi2ss %rax,%xmm0
    643c:	f3 0f 58 c0          	addss  %xmm0,%xmm0
    6440:	49 8b 57 28          	mov    0x28(%r15),%rdx
    6444:	48 85 d2             	test   %rdx,%rdx
    6447:	78 07                	js     6450 <print_xml_report+0x932>
    6449:	f3 48 0f 2a ca       	cvtsi2ss %rdx,%xmm1
    644e:	eb 15                	jmp    6465 <print_xml_report+0x947>
    6450:	48 89 d0             	mov    %rdx,%rax
    6453:	83 e2 01             	and    $0x1,%edx
    6456:	48 d1 e8             	shr    %rax
    6459:	48 09 d0             	or     %rdx,%rax
    645c:	f3 48 0f 2a c8       	cvtsi2ss %rax,%xmm1
    6461:	f3 0f 58 c9          	addss  %xmm1,%xmm1
    6465:	f3 0f 5e c1          	divss  %xmm1,%xmm0
    6469:	8b 05 41 b9 00 00    	mov    0xb941(%rip),%eax        # 11db0 <freq_khz>
    646f:	4c 89 4c 24 08       	mov    %r9,0x8(%rsp)
    6474:	f3 48 0f 2a c8       	cvtsi2ss %rax,%xmm1
    6479:	f3 0f 59 05 67 4b 00 	mulss  0x4b67(%rip),%xmm0        # afe8 <args_doc_str.10218+0x10>
    6480:	00 
    6481:	f3 0f 5e c1          	divss  %xmm1,%xmm0
    6485:	f3 0f 5a c0          	cvtss2sd %xmm0,%xmm0
    6489:	e8 32 1e 00 00       	callq  82c0 <floatToXmlChar>
    648e:	4c 8b 4c 24 08       	mov    0x8(%rsp),%r9
    6493:	31 f6                	xor    %esi,%esi
    6495:	48 89 c1             	mov    %rax,%rcx
    6498:	48 8d 15 f0 69 00 00 	lea    0x69f0(%rip),%rdx        # ce8f <__func__.9605+0x4af>
    649f:	4c 89 cf             	mov    %r9,%rdi
    64a2:	e8 09 d0 ff ff       	callq  34b0 <xmlNewChild@plt>
    64a7:	49 8b 47 20          	mov    0x20(%r15),%rax
    64ab:	31 d2                	xor    %edx,%edx
    64ad:	49 f7 77 28          	divq   0x28(%r15)
    64b1:	48 63 f8             	movslq %eax,%rdi
    64b4:	e8 87 1e 00 00       	callq  8340 <signedIntToXmlChar>
    64b9:	4c 8b 4c 24 08       	mov    0x8(%rsp),%r9
    64be:	31 f6                	xor    %esi,%esi
    64c0:	48 8d 15 d4 69 00 00 	lea    0x69d4(%rip),%rdx        # ce9b <__func__.9605+0x4bb>
    64c7:	48 89 c1             	mov    %rax,%rcx
    64ca:	4c 89 cf             	mov    %r9,%rdi
    64cd:	e8 de cf ff ff       	callq  34b0 <xmlNewChild@plt>
    64d2:	49 8b 7f 28          	mov    0x28(%r15),%rdi
    64d6:	e8 c5 1e 00 00       	callq  83a0 <unsignedIntToXmlChar>
    64db:	31 f6                	xor    %esi,%esi
    64dd:	48 8d 15 c4 69 00 00 	lea    0x69c4(%rip),%rdx        # cea8 <__func__.9605+0x4c8>
    64e4:	4c 89 ef             	mov    %r13,%rdi
    64e7:	48 89 c1             	mov    %rax,%rcx
    64ea:	e8 c1 cf ff ff       	callq  34b0 <xmlNewChild@plt>
    64ef:	83 3d 6a b9 00 00 00 	cmpl   $0x0,0xb96a(%rip)        # 11e60 <params+0x40>
    64f6:	0f 85 84 fc ff ff    	jne    6180 <print_xml_report+0x662>
    64fc:	4c 89 e7             	mov    %r12,%rdi
    64ff:	31 c9                	xor    %ecx,%ecx
    6501:	48 8d 15 ae 69 00 00 	lea    0x69ae(%rip),%rdx        # ceb6 <__func__.9605+0x4d6>
    6508:	31 f6                	xor    %esi,%esi
    650a:	e8 a1 cf ff ff       	callq  34b0 <xmlNewChild@plt>
    650f:	48 8d 15 af 69 00 00 	lea    0x69af(%rip),%rdx        # cec5 <__func__.9605+0x4e5>
    6516:	31 c9                	xor    %ecx,%ecx
    6518:	31 f6                	xor    %esi,%esi
    651a:	48 89 c7             	mov    %rax,%rdi
    651d:	49 89 c4             	mov    %rax,%r12
    6520:	e8 8b cf ff ff       	callq  34b0 <xmlNewChild@plt>
    6525:	49 8b 57 10          	mov    0x10(%r15),%rdx
    6529:	49 89 c5             	mov    %rax,%r13
    652c:	48 85 d2             	test   %rdx,%rdx
    652f:	78 07                	js     6538 <print_xml_report+0xa1a>
    6531:	f3 48 0f 2a c2       	cvtsi2ss %rdx,%xmm0
    6536:	eb 15                	jmp    654d <print_xml_report+0xa2f>
    6538:	48 89 d0             	mov    %rdx,%rax
    653b:	83 e2 01             	and    $0x1,%edx
    653e:	48 d1 e8             	shr    %rax
    6541:	48 09 d0             	or     %rdx,%rax
    6544:	f3 48 0f 2a c0       	cvtsi2ss %rax,%xmm0
    6549:	f3 0f 58 c0          	addss  %xmm0,%xmm0
    654d:	49 8b 57 18          	mov    0x18(%r15),%rdx
    6551:	48 85 d2             	test   %rdx,%rdx
    6554:	78 07                	js     655d <print_xml_report+0xa3f>
    6556:	f3 48 0f 2a ca       	cvtsi2ss %rdx,%xmm1
    655b:	eb 15                	jmp    6572 <print_xml_report+0xa54>
    655d:	48 89 d0             	mov    %rdx,%rax
    6560:	83 e2 01             	and    $0x1,%edx
    6563:	48 d1 e8             	shr    %rax
    6566:	48 09 d0             	or     %rdx,%rax
    6569:	f3 48 0f 2a c8       	cvtsi2ss %rax,%xmm1
    656e:	f3 0f 58 c9          	addss  %xmm1,%xmm1
    6572:	f3 0f 5e c1          	divss  %xmm1,%xmm0
    6576:	8b 05 34 b8 00 00    	mov    0xb834(%rip),%eax        # 11db0 <freq_khz>
    657c:	f3 48 0f 2a c8       	cvtsi2ss %rax,%xmm1
    6581:	f3 0f 59 05 5f 4a 00 	mulss  0x4a5f(%rip),%xmm0        # afe8 <args_doc_str.10218+0x10>
    6588:	00 
    6589:	f3 0f 5e c1          	divss  %xmm1,%xmm0
    658d:	f3 0f 5a c0          	cvtss2sd %xmm0,%xmm0
    6591:	e8 2a 1d 00 00       	callq  82c0 <floatToXmlChar>
    6596:	31 f6                	xor    %esi,%esi
    6598:	4c 89 ef             	mov    %r13,%rdi
    659b:	48 89 c1             	mov    %rax,%rcx
    659e:	48 8d 15 2f 69 00 00 	lea    0x692f(%rip),%rdx        # ced4 <__func__.9605+0x4f4>
    65a5:	e8 06 cf ff ff       	callq  34b0 <xmlNewChild@plt>
    65aa:	49 8b 47 10          	mov    0x10(%r15),%rax
    65ae:	31 d2                	xor    %edx,%edx
    65b0:	49 f7 77 18          	divq   0x18(%r15)
    65b4:	48 63 f8             	movslq %eax,%rdi
    65b7:	e8 84 1d 00 00       	callq  8340 <signedIntToXmlChar>
    65bc:	31 f6                	xor    %esi,%esi
    65be:	48 8d 15 19 69 00 00 	lea    0x6919(%rip),%rdx        # cede <__func__.9605+0x4fe>
    65c5:	4c 89 ef             	mov    %r13,%rdi
    65c8:	48 89 c1             	mov    %rax,%rcx
    65cb:	e8 e0 ce ff ff       	callq  34b0 <xmlNewChild@plt>
    65d0:	49 8b 7f 18          	mov    0x18(%r15),%rdi
    65d4:	e8 c7 1d 00 00       	callq  83a0 <unsignedIntToXmlChar>
    65d9:	48 8d 15 09 69 00 00 	lea    0x6909(%rip),%rdx        # cee9 <__func__.9605+0x509>
    65e0:	31 f6                	xor    %esi,%esi
    65e2:	4c 89 e7             	mov    %r12,%rdi
    65e5:	48 89 c1             	mov    %rax,%rcx
    65e8:	e8 c3 ce ff ff       	callq  34b0 <xmlNewChild@plt>
    65ed:	e9 8e fb ff ff       	jmpq   6180 <print_xml_report+0x662>
    65f2:	48 8d 05 67 9f 00 00 	lea    0x9f67(%rip),%rax        # 10560 <histogram_access>
    65f9:	48 39 43 10          	cmp    %rax,0x10(%rbx)
    65fd:	75 43                	jne    6642 <print_xml_report+0xb24>
    65ff:	31 c9                	xor    %ecx,%ecx
    6601:	31 f6                	xor    %esi,%esi
    6603:	48 8d 15 ec 68 00 00 	lea    0x68ec(%rip),%rdx        # cef6 <__func__.9605+0x516>
    660a:	48 89 ef             	mov    %rbp,%rdi
    660d:	e8 9e ce ff ff       	callq  34b0 <xmlNewChild@plt>
    6612:	83 7b 64 00          	cmpl   $0x0,0x64(%rbx)
    6616:	49 89 c4             	mov    %rax,%r12
    6619:	7e 0f                	jle    662a <print_xml_report+0xb0c>
    661b:	48 8b 7c 24 10       	mov    0x10(%rsp),%rdi
    6620:	48 89 c2             	mov    %rax,%rdx
    6623:	31 f6                	xor    %esi,%esi
    6625:	e8 69 f3 ff ff       	callq  5993 <makeHistogramNode>
    662a:	83 7b 64 63          	cmpl   $0x63,0x64(%rbx)
    662e:	7f 12                	jg     6642 <print_xml_report+0xb24>
    6630:	48 8b 7c 24 10       	mov    0x10(%rsp),%rdi
    6635:	4c 89 e2             	mov    %r12,%rdx
    6638:	be 01 00 00 00       	mov    $0x1,%esi
    663d:	e8 51 f3 ff ff       	callq  5993 <makeHistogramNode>
    6642:	31 c9                	xor    %ecx,%ecx
    6644:	48 8d 15 b6 68 00 00 	lea    0x68b6(%rip),%rdx        # cf01 <__func__.9605+0x521>
    664b:	31 f6                	xor    %esi,%esi
    664d:	48 89 ef             	mov    %rbp,%rdi
    6650:	e8 5b ce ff ff       	callq  34b0 <xmlNewChild@plt>
    6655:	83 3d 04 b8 00 00 00 	cmpl   $0x0,0xb804(%rip)        # 11e60 <params+0x40>
    665c:	48 8d 15 9d b6 00 00 	lea    0xb69d(%rip),%rdx        # 11d00 <mem_info_before_warmup>
    6663:	48 89 05 d6 b4 00 00 	mov    %rax,0xb4d6(%rip)        # 11b40 <sysmeminfonode>
    666a:	48 89 c7             	mov    %rax,%rdi
    666d:	74 3e                	je     66ad <print_xml_report+0xb8f>
    666f:	48 8d 35 98 68 00 00 	lea    0x6898(%rip),%rsi        # cf0e <__func__.9605+0x52e>
    6676:	e8 77 f0 ff ff       	callq  56f2 <makeSysMemItemNode>
    667b:	83 3d 7e b7 00 00 00 	cmpl   $0x0,0xb77e(%rip)        # 11e00 <mem_info_middle_run+0x40>
    6682:	48 8d 15 37 b7 00 00 	lea    0xb737(%rip),%rdx        # 11dc0 <mem_info_middle_run>
    6689:	48 8d 35 70 b6 00 00 	lea    0xb670(%rip),%rsi        # 11d00 <mem_info_before_warmup>
    6690:	48 89 c7             	mov    %rax,%rdi
    6693:	75 6e                	jne    6703 <print_xml_report+0xbe5>
    6695:	48 8d 15 04 b6 00 00 	lea    0xb604(%rip),%rdx        # 11ca0 <mem_info_after_run>
    669c:	48 8d 35 5d b6 00 00 	lea    0xb65d(%rip),%rsi        # 11d00 <mem_info_before_warmup>
    66a3:	e8 6e ee ff ff       	callq  5516 <makeMemItemDeltaNode>
    66a8:	e9 a0 00 00 00       	jmpq   674d <print_xml_report+0xc2f>
    66ad:	48 8d 35 6a 68 00 00 	lea    0x686a(%rip),%rsi        # cf1e <__func__.9605+0x53e>
    66b4:	e8 39 f0 ff ff       	callq  56f2 <makeSysMemItemNode>
    66b9:	48 8d 15 a0 b6 00 00 	lea    0xb6a0(%rip),%rdx        # 11d60 <mem_info_before_run>
    66c0:	48 8d 35 39 b6 00 00 	lea    0xb639(%rip),%rsi        # 11d00 <mem_info_before_warmup>
    66c7:	48 89 c7             	mov    %rax,%rdi
    66ca:	e8 47 ee ff ff       	callq  5516 <makeMemItemDeltaNode>
    66cf:	48 8b 3d 6a b4 00 00 	mov    0xb46a(%rip),%rdi        # 11b40 <sysmeminfonode>
    66d6:	48 8d 15 83 b6 00 00 	lea    0xb683(%rip),%rdx        # 11d60 <mem_info_before_run>
    66dd:	48 8d 35 2a 68 00 00 	lea    0x682a(%rip),%rsi        # cf0e <__func__.9605+0x52e>
    66e4:	e8 09 f0 ff ff       	callq  56f2 <makeSysMemItemNode>
    66e9:	83 3d 10 b7 00 00 00 	cmpl   $0x0,0xb710(%rip)        # 11e00 <mem_info_middle_run+0x40>
    66f0:	48 89 c7             	mov    %rax,%rdi
    66f3:	74 45                	je     673a <print_xml_report+0xc1c>
    66f5:	48 8d 15 c4 b6 00 00 	lea    0xb6c4(%rip),%rdx        # 11dc0 <mem_info_middle_run>
    66fc:	48 8d 35 5d b6 00 00 	lea    0xb65d(%rip),%rsi        # 11d60 <mem_info_before_run>
    6703:	e8 0e ee ff ff       	callq  5516 <makeMemItemDeltaNode>
    6708:	48 8b 3d 31 b4 00 00 	mov    0xb431(%rip),%rdi        # 11b40 <sysmeminfonode>
    670f:	48 8d 15 aa b6 00 00 	lea    0xb6aa(%rip),%rdx        # 11dc0 <mem_info_middle_run>
    6716:	48 8d 35 f9 67 00 00 	lea    0x67f9(%rip),%rsi        # cf16 <__func__.9605+0x536>
    671d:	e8 d0 ef ff ff       	callq  56f2 <makeSysMemItemNode>
    6722:	48 8d 15 77 b5 00 00 	lea    0xb577(%rip),%rdx        # 11ca0 <mem_info_after_run>
    6729:	48 8d 35 90 b6 00 00 	lea    0xb690(%rip),%rsi        # 11dc0 <mem_info_middle_run>
    6730:	48 89 c7             	mov    %rax,%rdi
    6733:	e8 de ed ff ff       	callq  5516 <makeMemItemDeltaNode>
    6738:	eb 13                	jmp    674d <print_xml_report+0xc2f>
    673a:	48 8d 15 5f b5 00 00 	lea    0xb55f(%rip),%rdx        # 11ca0 <mem_info_after_run>
    6741:	48 8d 35 18 b6 00 00 	lea    0xb618(%rip),%rsi        # 11d60 <mem_info_before_run>
    6748:	e8 c9 ed ff ff       	callq  5516 <makeMemItemDeltaNode>
    674d:	48 8b 3d ec b3 00 00 	mov    0xb3ec(%rip),%rdi        # 11b40 <sysmeminfonode>
    6754:	48 8d 15 45 b5 00 00 	lea    0xb545(%rip),%rdx        # 11ca0 <mem_info_after_run>
    675b:	48 8d 35 c7 67 00 00 	lea    0x67c7(%rip),%rsi        # cf29 <__func__.9605+0x549>
    6762:	e8 8b ef ff ff       	callq  56f2 <makeSysMemItemNode>
    6767:	48 89 05 da b3 00 00 	mov    %rax,0xb3da(%rip)        # 11b48 <postrunnode>
    676e:	48 8b 44 24 58       	mov    0x58(%rsp),%rax
    6773:	64 48 33 04 25 28 00 	xor    %fs:0x28,%rax
    677a:	00 00 
    677c:	74 05                	je     6783 <print_xml_report+0xc65>
    677e:	e8 dd ce ff ff       	callq  3660 <__stack_chk_fail@plt>
    6783:	48 83 c4 68          	add    $0x68,%rsp
    6787:	5b                   	pop    %rbx
    6788:	5d                   	pop    %rbp
    6789:	41 5c                	pop    %r12
    678b:	41 5d                	pop    %r13
    678d:	41 5e                	pop    %r14
    678f:	41 5f                	pop    %r15
    6791:	c3                   	retq   

0000000000006792 <print_xml_report_post_unmap>:
    6792:	f3 0f 1e fa          	endbr64 
    6796:	55                   	push   %rbp
    6797:	48 89 fd             	mov    %rdi,%rbp
    679a:	48 8b 3d a7 b3 00 00 	mov    0xb3a7(%rip),%rdi        # 11b48 <postrunnode>
    67a1:	48 8d 15 58 b4 00 00 	lea    0xb458(%rip),%rdx        # 11c00 <mem_info_after_unmap>
    67a8:	48 8d 35 f1 b4 00 00 	lea    0xb4f1(%rip),%rsi        # 11ca0 <mem_info_after_run>
    67af:	e8 62 ed ff ff       	callq  5516 <makeMemItemDeltaNode>
    67b4:	48 8b 3d 85 b3 00 00 	mov    0xb385(%rip),%rdi        # 11b40 <sysmeminfonode>
    67bb:	48 8d 15 3e b4 00 00 	lea    0xb43e(%rip),%rdx        # 11c00 <mem_info_after_unmap>
    67c2:	48 8d 35 69 67 00 00 	lea    0x6769(%rip),%rsi        # cf32 <__func__.9605+0x552>
    67c9:	e8 24 ef ff ff       	callq  56f2 <makeSysMemItemNode>
    67ce:	31 ff                	xor    %edi,%edi
    67d0:	e8 7b ce ff ff       	callq  3650 <xmlKeepBlanksDefault@plt>
    67d5:	48 8b 35 7c b3 00 00 	mov    0xb37c(%rip),%rsi        # 11b58 <xdoc>
    67dc:	48 89 ef             	mov    %rbp,%rdi
    67df:	5d                   	pop    %rbp
    67e0:	b9 01 00 00 00       	mov    $0x1,%ecx
    67e5:	48 8d 15 51 67 00 00 	lea    0x6751(%rip),%rdx        # cf3d <__func__.9605+0x55d>
    67ec:	e9 3f cf ff ff       	jmpq   3730 <xmlSaveFormatFileEnc@plt>
    67f1:	66 2e 0f 1f 84 00 00 	nopw   %cs:0x0(%rax,%rax,1)
    67f8:	00 00 00 
    67fb:	0f 1f 44 00 00       	nopl   0x0(%rax,%rax,1)

0000000000006800 <_start>:
    6800:	f3 0f 1e fa          	endbr64 
    6804:	31 ed                	xor    %ebp,%ebp
    6806:	49 89 d1             	mov    %rdx,%r9
    6809:	5e                   	pop    %rsi
    680a:	48 89 e2             	mov    %rsp,%rdx
    680d:	48 83 e4 f0          	and    $0xfffffffffffffff0,%rsp
    6811:	50                   	push   %rax
    6812:	54                   	push   %rsp
    6813:	4c 8d 05 36 1e 00 00 	lea    0x1e36(%rip),%r8        # 8650 <__libc_csu_fini>
    681a:	48 8d 0d bf 1d 00 00 	lea    0x1dbf(%rip),%rcx        # 85e0 <__libc_csu_init>
    6821:	48 8d 3d 8e db ff ff 	lea    -0x2472(%rip),%rdi        # 43b6 <main>
    6828:	ff 15 ba 97 00 00    	callq  *0x97ba(%rip)        # ffe8 <__libc_start_main@GLIBC_2.2.5>
    682e:	f4                   	hlt    
    682f:	90                   	nop

0000000000006830 <deregister_tm_clones>:
    6830:	48 8d 3d 99 9d 00 00 	lea    0x9d99(%rip),%rdi        # 105d0 <__TMC_END__>
    6837:	48 8d 05 92 9d 00 00 	lea    0x9d92(%rip),%rax        # 105d0 <__TMC_END__>
    683e:	48 39 f8             	cmp    %rdi,%rax
    6841:	74 15                	je     6858 <deregister_tm_clones+0x28>
    6843:	48 8b 05 96 97 00 00 	mov    0x9796(%rip),%rax        # ffe0 <_ITM_deregisterTMCloneTable>
    684a:	48 85 c0             	test   %rax,%rax
    684d:	74 09                	je     6858 <deregister_tm_clones+0x28>
    684f:	ff e0                	jmpq   *%rax
    6851:	0f 1f 80 00 00 00 00 	nopl   0x0(%rax)
    6858:	c3                   	retq   
    6859:	0f 1f 80 00 00 00 00 	nopl   0x0(%rax)

0000000000006860 <register_tm_clones>:
    6860:	48 8d 3d 69 9d 00 00 	lea    0x9d69(%rip),%rdi        # 105d0 <__TMC_END__>
    6867:	48 8d 35 62 9d 00 00 	lea    0x9d62(%rip),%rsi        # 105d0 <__TMC_END__>
    686e:	48 29 fe             	sub    %rdi,%rsi
    6871:	48 89 f0             	mov    %rsi,%rax
    6874:	48 c1 ee 3f          	shr    $0x3f,%rsi
    6878:	48 c1 f8 03          	sar    $0x3,%rax
    687c:	48 01 c6             	add    %rax,%rsi
    687f:	48 d1 fe             	sar    %rsi
    6882:	74 14                	je     6898 <register_tm_clones+0x38>
    6884:	48 8b 05 6d 97 00 00 	mov    0x976d(%rip),%rax        # fff8 <_ITM_registerTMCloneTable>
    688b:	48 85 c0             	test   %rax,%rax
    688e:	74 08                	je     6898 <register_tm_clones+0x38>
    6890:	ff e0                	jmpq   *%rax
    6892:	66 0f 1f 44 00 00    	nopw   0x0(%rax,%rax,1)
    6898:	c3                   	retq   
    6899:	0f 1f 80 00 00 00 00 	nopl   0x0(%rax)

00000000000068a0 <__do_global_dtors_aux>:
    68a0:	f3 0f 1e fa          	endbr64 
    68a4:	80 3d 65 9d 00 00 00 	cmpb   $0x0,0x9d65(%rip)        # 10610 <completed.8060>
    68ab:	75 2b                	jne    68d8 <__do_global_dtors_aux+0x38>
    68ad:	55                   	push   %rbp
    68ae:	48 83 3d 22 97 00 00 	cmpq   $0x0,0x9722(%rip)        # ffd8 <__cxa_finalize@GLIBC_2.2.5>
    68b5:	00 
    68b6:	48 89 e5             	mov    %rsp,%rbp
    68b9:	74 0c                	je     68c7 <__do_global_dtors_aux+0x27>
    68bb:	48 8b 3d 46 97 00 00 	mov    0x9746(%rip),%rdi        # 10008 <__dso_handle>
    68c2:	e8 59 cb ff ff       	callq  3420 <__cxa_finalize@plt>
    68c7:	e8 64 ff ff ff       	callq  6830 <deregister_tm_clones>
    68cc:	c6 05 3d 9d 00 00 01 	movb   $0x1,0x9d3d(%rip)        # 10610 <completed.8060>
    68d3:	5d                   	pop    %rbp
    68d4:	c3                   	retq   
    68d5:	0f 1f 00             	nopl   (%rax)
    68d8:	c3                   	retq   
    68d9:	0f 1f 80 00 00 00 00 	nopl   0x0(%rax)

00000000000068e0 <frame_dummy>:
    68e0:	f3 0f 1e fa          	endbr64 
    68e4:	e9 77 ff ff ff       	jmpq   6860 <register_tm_clones>
    68e9:	0f 1f 80 00 00 00 00 	nopl   0x0(%rax)

00000000000068f0 <mem_info_oneshot>:
    68f0:	f3 0f 1e fa          	endbr64 
    68f4:	48 89 f7             	mov    %rsi,%rdi
    68f7:	48 8d 35 c2 b4 00 00 	lea    0xb4c2(%rip),%rsi        # 11dc0 <mem_info_middle_run>
    68fe:	e9 cd 10 00 00       	jmpq   79d0 <sys_stat_mem_update>
    6903:	66 66 2e 0f 1f 84 00 	data16 nopw %cs:0x0(%rax,%rax,1)
    690a:	00 00 00 00 
    690e:	66 90                	xchg   %ax,%ax

0000000000006910 <report_stat>:
    6910:	f3 0f 1e fa          	endbr64 
    6914:	41 54                	push   %r12
    6916:	55                   	push   %rbp
    6917:	48 89 fd             	mov    %rdi,%rbp
    691a:	53                   	push   %rbx
    691b:	48 89 f3             	mov    %rsi,%rbx
    691e:	48 89 df             	mov    %rbx,%rdi
    6921:	48 83 ec 50          	sub    $0x50,%rsp
    6925:	64 48 8b 04 25 28 00 	mov    %fs:0x28,%rax
    692c:	00 00 
    692e:	48 89 44 24 48       	mov    %rax,0x48(%rsp)
    6933:	31 c0                	xor    %eax,%eax
    6935:	49 89 e4             	mov    %rsp,%r12
    6938:	4c 89 e6             	mov    %r12,%rsi
    693b:	e8 90 10 00 00       	callq  79d0 <sys_stat_mem_update>
    6940:	4c 89 e7             	mov    %r12,%rdi
    6943:	e8 f8 e9 ff ff       	callq  5340 <sys_stat_mem_print>
    6948:	48 8d 05 c1 ff ff ff 	lea    -0x3f(%rip),%rax        # 6910 <report_stat>
    694f:	48 89 1d 5a b2 00 00 	mov    %rbx,0xb25a(%rip)        # 11bb0 <alarms+0x10>
    6956:	69 3d 50 b4 00 00 e8 	imul   $0x3e8,0xb450(%rip),%edi        # 11db0 <freq_khz>
    695d:	03 00 00 
    6960:	48 89 05 41 b2 00 00 	mov    %rax,0xb241(%rip)        # 11ba8 <alarms+0x8>
    6967:	48 01 ef             	add    %rbp,%rdi
    696a:	48 89 3d 2f b2 00 00 	mov    %rdi,0xb22f(%rip)        # 11ba0 <alarms>
    6971:	48 8b 44 24 48       	mov    0x48(%rsp),%rax
    6976:	64 48 33 04 25 28 00 	xor    %fs:0x28,%rax
    697d:	00 00 
    697f:	75 09                	jne    698a <report_stat+0x7a>
    6981:	48 83 c4 50          	add    $0x50,%rsp
    6985:	5b                   	pop    %rbx
    6986:	5d                   	pop    %rbp
    6987:	41 5c                	pop    %r12
    6989:	c3                   	retq   
    698a:	e8 d1 cc ff ff       	callq  3660 <__stack_chk_fail@plt>
    698f:	90                   	nop

0000000000006990 <prn>:
    6990:	41 55                	push   %r13
    6992:	41 54                	push   %r12
    6994:	49 89 fc             	mov    %rdi,%r12
    6997:	48 81 ec d8 00 00 00 	sub    $0xd8,%rsp
    699e:	48 89 74 24 28       	mov    %rsi,0x28(%rsp)
    69a3:	48 89 54 24 30       	mov    %rdx,0x30(%rsp)
    69a8:	48 89 4c 24 38       	mov    %rcx,0x38(%rsp)
    69ad:	4c 89 44 24 40       	mov    %r8,0x40(%rsp)
    69b2:	4c 89 4c 24 48       	mov    %r9,0x48(%rsp)
    69b7:	84 c0                	test   %al,%al
    69b9:	74 37                	je     69f2 <prn+0x62>
    69bb:	0f 29 44 24 50       	movaps %xmm0,0x50(%rsp)
    69c0:	0f 29 4c 24 60       	movaps %xmm1,0x60(%rsp)
    69c5:	0f 29 54 24 70       	movaps %xmm2,0x70(%rsp)
    69ca:	0f 29 9c 24 80 00 00 	movaps %xmm3,0x80(%rsp)
    69d1:	00 
    69d2:	0f 29 a4 24 90 00 00 	movaps %xmm4,0x90(%rsp)
    69d9:	00 
    69da:	0f 29 ac 24 a0 00 00 	movaps %xmm5,0xa0(%rsp)
    69e1:	00 
    69e2:	0f 29 b4 24 b0 00 00 	movaps %xmm6,0xb0(%rsp)
    69e9:	00 
    69ea:	0f 29 bc 24 c0 00 00 	movaps %xmm7,0xc0(%rsp)
    69f1:	00 
    69f2:	64 48 8b 04 25 28 00 	mov    %fs:0x28,%rax
    69f9:	00 00 
    69fb:	48 89 44 24 18       	mov    %rax,0x18(%rsp)
    6a00:	31 c0                	xor    %eax,%eax
    6a02:	8b 05 54 b4 00 00    	mov    0xb454(%rip),%eax        # 11e5c <params+0x3c>
    6a08:	45 31 ed             	xor    %r13d,%r13d
    6a0b:	85 c0                	test   %eax,%eax
    6a0d:	75 58                	jne    6a67 <prn+0xd7>
    6a0f:	48 8d 3d 0a 9c 00 00 	lea    0x9c0a(%rip),%rdi        # 10620 <lock_prn>
    6a16:	e8 45 cd ff ff       	callq  3760 <pthread_mutex_lock@plt>
    6a1b:	48 89 e1             	mov    %rsp,%rcx
    6a1e:	4c 89 e2             	mov    %r12,%rdx
    6a21:	be 01 00 00 00       	mov    $0x1,%esi
    6a26:	48 8b 3d b3 9b 00 00 	mov    0x9bb3(%rip),%rdi        # 105e0 <stdout@@GLIBC_2.2.5>
    6a2d:	48 8d 84 24 f0 00 00 	lea    0xf0(%rsp),%rax
    6a34:	00 
    6a35:	c7 04 24 08 00 00 00 	movl   $0x8,(%rsp)
    6a3c:	48 89 44 24 08       	mov    %rax,0x8(%rsp)
    6a41:	48 8d 44 24 20       	lea    0x20(%rsp),%rax
    6a46:	c7 44 24 04 30 00 00 	movl   $0x30,0x4(%rsp)
    6a4d:	00 
    6a4e:	48 89 44 24 10       	mov    %rax,0x10(%rsp)
    6a53:	e8 48 ca ff ff       	callq  34a0 <__vfprintf_chk@plt>
    6a58:	48 8d 3d c1 9b 00 00 	lea    0x9bc1(%rip),%rdi        # 10620 <lock_prn>
    6a5f:	41 89 c5             	mov    %eax,%r13d
    6a62:	e8 19 cb ff ff       	callq  3580 <pthread_mutex_unlock@plt>
    6a67:	48 8b 44 24 18       	mov    0x18(%rsp),%rax
    6a6c:	64 48 33 04 25 28 00 	xor    %fs:0x28,%rax
    6a73:	00 00 
    6a75:	75 0f                	jne    6a86 <prn+0xf6>
    6a77:	48 81 c4 d8 00 00 00 	add    $0xd8,%rsp
    6a7e:	44 89 e8             	mov    %r13d,%eax
    6a81:	41 5c                	pop    %r12
    6a83:	41 5d                	pop    %r13
    6a85:	c3                   	retq   
    6a86:	e8 d5 cb ff ff       	callq  3660 <__stack_chk_fail@plt>
    6a8b:	0f 1f 44 00 00       	nopl   0x0(%rax,%rax,1)

0000000000006a90 <sigint_sigaction_entry>:
    6a90:	f3 0f 1e fa          	endbr64 
    6a94:	41 54                	push   %r12
    6a96:	55                   	push   %rbp
    6a97:	89 fd                	mov    %edi,%ebp
    6a99:	53                   	push   %rbx
    6a9a:	83 3e 02             	cmpl   $0x2,(%rsi)
    6a9d:	74 29                	je     6ac8 <sigint_sigaction_entry+0x38>
    6a9f:	48 8d 3d 85 3f 00 00 	lea    0x3f85(%rip),%rdi        # aa2b <_IO_stdin_used+0xa2b>
    6aa6:	31 c0                	xor    %eax,%eax
    6aa8:	e8 e3 fe ff ff       	callq  6990 <prn>
    6aad:	89 ef                	mov    %ebp,%edi
    6aaf:	31 f6                	xor    %esi,%esi
    6ab1:	e8 ea cb ff ff       	callq  36a0 <signal@plt>
    6ab6:	5b                   	pop    %rbx
    6ab7:	89 ef                	mov    %ebp,%edi
    6ab9:	5d                   	pop    %rbp
    6aba:	41 5c                	pop    %r12
    6abc:	e9 7f cb ff ff       	jmpq   3640 <raise@plt>
    6ac1:	0f 1f 80 00 00 00 00 	nopl   0x0(%rax)
    6ac8:	e8 73 c9 ff ff       	callq  3440 <__errno_location@plt>
    6acd:	48 8d 3d 67 3f 00 00 	lea    0x3f67(%rip),%rdi        # aa3b <_IO_stdin_used+0xa3b>
    6ad4:	44 8b 20             	mov    (%rax),%r12d
    6ad7:	48 89 c3             	mov    %rax,%rbx
    6ada:	31 c0                	xor    %eax,%eax
    6adc:	e8 af fe ff ff       	callq  6990 <prn>
    6ae1:	89 ef                	mov    %ebp,%edi
    6ae3:	31 f6                	xor    %esi,%esi
    6ae5:	c7 05 81 b1 00 00 01 	movl   $0x1,0xb181(%rip)        # 11c70 <control+0x10>
    6aec:	00 00 00 
    6aef:	e8 ac cb ff ff       	callq  36a0 <signal@plt>
    6af4:	44 89 23             	mov    %r12d,(%rbx)
    6af7:	5b                   	pop    %rbx
    6af8:	5d                   	pop    %rbp
    6af9:	41 5c                	pop    %r12
    6afb:	c3                   	retq   
    6afc:	0f 1f 40 00          	nopl   0x0(%rax)

0000000000006b00 <get_tsops>:
    6b00:	f3 0f 1e fa          	endbr64 
    6b04:	48 8b 05 5d b3 00 00 	mov    0xb35d(%rip),%rax        # 11e68 <params+0x48>
    6b0b:	c3                   	retq   
    6b0c:	0f 1f 40 00          	nopl   0x0(%rax)

0000000000006b10 <get_result>:
    6b10:	f3 0f 1e fa          	endbr64 
    6b14:	48 63 ff             	movslq %edi,%rdi
    6b17:	48 8d 04 bf          	lea    (%rdi,%rdi,4),%rax
    6b1b:	48 c1 e0 04          	shl    $0x4,%rax
    6b1f:	48 03 05 3a b1 00 00 	add    0xb13a(%rip),%rax        # 11c60 <control>
    6b26:	48 83 c0 18          	add    $0x18,%rax
    6b2a:	c3                   	retq   
    6b2b:	0f 1f 44 00 00       	nopl   0x0(%rax,%rax,1)

0000000000006b30 <disable_core_dump>:
    6b30:	f3 0f 1e fa          	endbr64 
    6b34:	48 83 ec 28          	sub    $0x28,%rsp
    6b38:	bf 04 00 00 00       	mov    $0x4,%edi
    6b3d:	64 48 8b 04 25 28 00 	mov    %fs:0x28,%rax
    6b44:	00 00 
    6b46:	48 89 44 24 18       	mov    %rax,0x18(%rsp)
    6b4b:	31 c0                	xor    %eax,%eax
    6b4d:	48 89 e6             	mov    %rsp,%rsi
    6b50:	48 c7 04 24 00 00 00 	movq   $0x0,(%rsp)
    6b57:	00 
    6b58:	48 c7 44 24 08 00 00 	movq   $0x0,0x8(%rsp)
    6b5f:	00 00 
    6b61:	e8 9a ca ff ff       	callq  3600 <setrlimit@plt>
    6b66:	85 c0                	test   %eax,%eax
    6b68:	75 16                	jne    6b80 <disable_core_dump+0x50>
    6b6a:	48 8b 44 24 18       	mov    0x18(%rsp),%rax
    6b6f:	64 48 33 04 25 28 00 	xor    %fs:0x28,%rax
    6b76:	00 00 
    6b78:	75 14                	jne    6b8e <disable_core_dump+0x5e>
    6b7a:	48 83 c4 28          	add    $0x28,%rsp
    6b7e:	c3                   	retq   
    6b7f:	90                   	nop
    6b80:	48 8d 3d 51 39 00 00 	lea    0x3951(%rip),%rdi        # a4d8 <_IO_stdin_used+0x4d8>
    6b87:	e8 54 ca ff ff       	callq  35e0 <perror@plt>
    6b8c:	eb dc                	jmp    6b6a <disable_core_dump+0x3a>
    6b8e:	e8 cd ca ff ff       	callq  3660 <__stack_chk_fail@plt>
    6b93:	66 2e 0f 1f 84 00 00 	nopw   %cs:0x0(%rax,%rax,1)
    6b9a:	00 00 00 
    6b9d:	0f 1f 00             	nopl   (%rax)

0000000000006ba0 <linear_get_warmup_run>:
    6ba0:	f3 0f 1e fa          	endbr64 
    6ba4:	48 8b 47 08          	mov    0x8(%rdi),%rax
    6ba8:	c3                   	retq   
    6ba9:	0f 1f 80 00 00 00 00 	nopl   0x0(%rax)

0000000000006bb0 <uniform_get_warmup_run>:
    6bb0:	f3 0f 1e fa          	endbr64 
    6bb4:	48 8b 47 08          	mov    0x8(%rdi),%rax
    6bb8:	48 c1 e0 02          	shl    $0x2,%rax
    6bbc:	c3                   	retq   
    6bbd:	0f 1f 00             	nopl   (%rax)

0000000000006bc0 <normal_ih_get_warmup_run>:
    6bc0:	f3 0f 1e fa          	endbr64 
    6bc4:	48 8b 47 20          	mov    0x20(%rdi),%rax
    6bc8:	c3                   	retq   
    6bc9:	0f 1f 80 00 00 00 00 	nopl   0x0(%rax)

0000000000006bd0 <normal_get_warmup_run>:
    6bd0:	f3 0f 1e fa          	endbr64 
    6bd4:	48 8b 47 08          	mov    0x8(%rdi),%rax
    6bd8:	c3                   	retq   
    6bd9:	0f 1f 80 00 00 00 00 	nopl   0x0(%rax)

0000000000006be0 <pareto_get_warmup_run>:
    6be0:	f3 0f 1e fa          	endbr64 
    6be4:	f2 0f 10 0d 24 45 00 	movsd  0x4524(%rip),%xmm1        # b110 <args_doc_str.10218+0x138>
    6beb:	00 
    6bec:	f2 0f 10 47 10       	movsd  0x10(%rdi),%xmm0
    6bf1:	66 0f 2f c1          	comisd %xmm1,%xmm0
    6bf5:	73 11                	jae    6c08 <pareto_get_warmup_run+0x28>
    6bf7:	f2 48 0f 2c c0       	cvttsd2si %xmm0,%rax
    6bfc:	48 c1 e0 03          	shl    $0x3,%rax
    6c00:	c3                   	retq   
    6c01:	0f 1f 80 00 00 00 00 	nopl   0x0(%rax)
    6c08:	f2 0f 5c c1          	subsd  %xmm1,%xmm0
    6c0c:	f2 48 0f 2c c0       	cvttsd2si %xmm0,%rax
    6c11:	48 0f ba f8 3f       	btc    $0x3f,%rax
    6c16:	48 c1 e0 03          	shl    $0x3,%rax
    6c1a:	c3                   	retq   
    6c1b:	0f 1f 44 00 00       	nopl   0x0(%rax,%rax,1)

0000000000006c20 <generic_free_pattern>:
    6c20:	f3 0f 1e fa          	endbr64 
    6c24:	48 83 ec 08          	sub    $0x8,%rsp
    6c28:	e8 83 ca ff ff       	callq  36b0 <free@plt>
    6c2d:	31 c0                	xor    %eax,%eax
    6c2f:	48 83 c4 08          	add    $0x8,%rsp
    6c33:	c3                   	retq   
    6c34:	66 66 2e 0f 1f 84 00 	data16 nopw %cs:0x0(%rax,%rax,1)
    6c3b:	00 00 00 00 
    6c3f:	90                   	nop

0000000000006c40 <linear_alloc_pattern_fn>:
    6c40:	f3 0f 1e fa          	endbr64 
    6c44:	53                   	push   %rbx
    6c45:	48 89 fb             	mov    %rdi,%rbx
    6c48:	bf 18 00 00 00       	mov    $0x18,%edi
    6c4d:	48 83 ec 10          	sub    $0x10,%rsp
    6c51:	f2 0f 11 44 24 08    	movsd  %xmm0,0x8(%rsp)
    6c57:	e8 c4 ca ff ff       	callq  3720 <malloc@plt>
    6c5c:	48 85 c0             	test   %rax,%rax
    6c5f:	74 1b                	je     6c7c <linear_alloc_pattern_fn+0x3c>
    6c61:	f2 0f 2c 54 24 08    	cvttsd2si 0x8(%rsp),%edx
    6c67:	48 89 58 08          	mov    %rbx,0x8(%rax)
    6c6b:	48 c7 00 00 00 00 00 	movq   $0x0,(%rax)
    6c72:	c7 40 10 00 00 00 00 	movl   $0x0,0x10(%rax)
    6c79:	89 50 14             	mov    %edx,0x14(%rax)
    6c7c:	48 83 c4 10          	add    $0x10,%rsp
    6c80:	5b                   	pop    %rbx
    6c81:	c3                   	retq   
    6c82:	66 66 2e 0f 1f 84 00 	data16 nopw %cs:0x0(%rax,%rax,1)
    6c89:	00 00 00 00 
    6c8d:	0f 1f 00             	nopl   (%rax)

0000000000006c90 <uniform_alloc_pattern_fn>:
    6c90:	f3 0f 1e fa          	endbr64 
    6c94:	55                   	push   %rbp
    6c95:	48 89 fd             	mov    %rdi,%rbp
    6c98:	bf 10 00 00 00       	mov    $0x10,%edi
    6c9d:	53                   	push   %rbx
    6c9e:	89 f3                	mov    %esi,%ebx
    6ca0:	48 83 ec 08          	sub    $0x8,%rsp
    6ca4:	e8 77 ca ff ff       	callq  3720 <malloc@plt>
    6ca9:	48 85 c0             	test   %rax,%rax
    6cac:	74 0a                	je     6cb8 <uniform_alloc_pattern_fn+0x28>
    6cae:	8d 53 02             	lea    0x2(%rbx),%edx
    6cb1:	48 89 68 08          	mov    %rbp,0x8(%rax)
    6cb5:	48 89 10             	mov    %rdx,(%rax)
    6cb8:	48 83 c4 08          	add    $0x8,%rsp
    6cbc:	5b                   	pop    %rbx
    6cbd:	5d                   	pop    %rbp
    6cbe:	c3                   	retq   
    6cbf:	90                   	nop

0000000000006cc0 <normal_ih_alloc_pattern_fn>:
    6cc0:	f3 0f 1e fa          	endbr64 
    6cc4:	55                   	push   %rbp
    6cc5:	89 f5                	mov    %esi,%ebp
    6cc7:	53                   	push   %rbx
    6cc8:	48 89 fb             	mov    %rdi,%rbx
    6ccb:	bf 28 00 00 00       	mov    $0x28,%edi
    6cd0:	48 83 ec 08          	sub    $0x8,%rsp
    6cd4:	e8 47 ca ff ff       	callq  3720 <malloc@plt>
    6cd9:	49 89 c0             	mov    %rax,%r8
    6cdc:	48 85 c0             	test   %rax,%rax
    6cdf:	74 43                	je     6d24 <normal_ih_alloc_pattern_fn+0x64>
    6ce1:	48 8d 53 04          	lea    0x4(%rbx),%rdx
    6ce5:	8d 45 03             	lea    0x3(%rbp),%eax
    6ce8:	48 8d 4b ff          	lea    -0x1(%rbx),%rcx
    6cec:	49 89 00             	mov    %rax,(%r8)
    6cef:	48 89 d0             	mov    %rdx,%rax
    6cf2:	48 bb ab aa aa aa aa 	movabs $0xaaaaaaaaaaaaaaab,%rbx
    6cf9:	aa aa aa 
    6cfc:	48 f7 e3             	mul    %rbx
    6cff:	49 89 48 20          	mov    %rcx,0x20(%r8)
    6d03:	48 c1 ea 03          	shr    $0x3,%rdx
    6d07:	8d 04 52             	lea    (%rdx,%rdx,2),%eax
    6d0a:	48 63 d2             	movslq %edx,%rdx
    6d0d:	c1 e0 02             	shl    $0x2,%eax
    6d10:	49 89 50 10          	mov    %rdx,0x10(%r8)
    6d14:	48 98                	cltq   
    6d16:	48 29 c1             	sub    %rax,%rcx
    6d19:	49 89 40 08          	mov    %rax,0x8(%r8)
    6d1d:	48 d1 e9             	shr    %rcx
    6d20:	41 89 48 18          	mov    %ecx,0x18(%r8)
    6d24:	48 83 c4 08          	add    $0x8,%rsp
    6d28:	4c 89 c0             	mov    %r8,%rax
    6d2b:	5b                   	pop    %rbx
    6d2c:	5d                   	pop    %rbp
    6d2d:	c3                   	retq   
    6d2e:	66 90                	xchg   %ax,%ax

0000000000006d30 <normal_alloc_pattern_fn>:
    6d30:	f3 0f 1e fa          	endbr64 
    6d34:	55                   	push   %rbp
    6d35:	48 89 fd             	mov    %rdi,%rbp
    6d38:	bf 20 00 00 00       	mov    $0x20,%edi
    6d3d:	53                   	push   %rbx
    6d3e:	89 f3                	mov    %esi,%ebx
    6d40:	48 83 ec 18          	sub    $0x18,%rsp
    6d44:	f2 0f 11 44 24 08    	movsd  %xmm0,0x8(%rsp)
    6d4a:	e8 d1 c9 ff ff       	callq  3720 <malloc@plt>
    6d4f:	48 85 c0             	test   %rax,%rax
    6d52:	74 1b                	je     6d6f <normal_alloc_pattern_fn+0x3f>
    6d54:	f2 0f 2c 54 24 08    	cvttsd2si 0x8(%rsp),%edx
    6d5a:	8d 4b 05             	lea    0x5(%rbx),%ecx
    6d5d:	48 89 68 08          	mov    %rbp,0x8(%rax)
    6d61:	48 89 08             	mov    %rcx,(%rax)
    6d64:	48 c7 40 10 ff ff ff 	movq   $0xffffffffffffffff,0x10(%rax)
    6d6b:	ff 
    6d6c:	89 50 18             	mov    %edx,0x18(%rax)
    6d6f:	48 83 c4 18          	add    $0x18,%rsp
    6d73:	5b                   	pop    %rbx
    6d74:	5d                   	pop    %rbp
    6d75:	c3                   	retq   
    6d76:	66 2e 0f 1f 84 00 00 	nopw   %cs:0x0(%rax,%rax,1)
    6d7d:	00 00 00 

0000000000006d80 <pareto_alloc_pattern_fn>:
    6d80:	f3 0f 1e fa          	endbr64 
    6d84:	41 54                	push   %r12
    6d86:	55                   	push   %rbp
    6d87:	89 f5                	mov    %esi,%ebp
    6d89:	53                   	push   %rbx
    6d8a:	48 89 fb             	mov    %rdi,%rbx
    6d8d:	bf 30 00 00 00       	mov    $0x30,%edi
    6d92:	48 83 ec 10          	sub    $0x10,%rsp
    6d96:	f2 0f 11 44 24 08    	movsd  %xmm0,0x8(%rsp)
    6d9c:	e8 7f c9 ff ff       	callq  3720 <malloc@plt>
    6da1:	49 89 c4             	mov    %rax,%r12
    6da4:	48 85 c0             	test   %rax,%rax
    6da7:	74 72                	je     6e1b <pareto_alloc_pattern_fn+0x9b>
    6da9:	f2 0f 10 1d 6f 43 00 	movsd  0x436f(%rip),%xmm3        # b120 <args_doc_str.10218+0x148>
    6db0:	00 
    6db1:	8d 45 08             	lea    0x8(%rbp),%eax
    6db4:	48 85 db             	test   %rbx,%rbx
    6db7:	f2 0f 10 4c 24 08    	movsd  0x8(%rsp),%xmm1
    6dbd:	49 89 04 24          	mov    %rax,(%r12)
    6dc1:	f2 41 0f 11 5c 24 08 	movsd  %xmm3,0x8(%r12)
    6dc8:	78 66                	js     6e30 <pareto_alloc_pattern_fn+0xb0>
    6dca:	66 0f ef d2          	pxor   %xmm2,%xmm2
    6dce:	f2 48 0f 2a d3       	cvtsi2sd %rbx,%xmm2
    6dd3:	66 0f 28 c3          	movapd %xmm3,%xmm0
    6dd7:	f2 41 0f 11 54 24 10 	movsd  %xmm2,0x10(%r12)
    6dde:	f2 0f 5e c2          	divsd  %xmm2,%xmm0
    6de2:	f2 41 0f 11 4c 24 18 	movsd  %xmm1,0x18(%r12)
    6de9:	e8 f2 c9 ff ff       	callq  37e0 <pow@plt>
    6dee:	48 8b 05 2b 43 00 00 	mov    0x432b(%rip),%rax        # b120 <args_doc_str.10218+0x148>
    6df5:	66 48 0f 6e d8       	movq   %rax,%xmm3
    6dfa:	f2 0f 5c d8          	subsd  %xmm0,%xmm3
    6dfe:	f2 0f 10 05 2a 43 00 	movsd  0x432a(%rip),%xmm0        # b130 <args_doc_str.10218+0x158>
    6e05:	00 
    6e06:	f2 41 0f 5e 44 24 18 	divsd  0x18(%r12),%xmm0
    6e0d:	f2 41 0f 11 44 24 28 	movsd  %xmm0,0x28(%r12)
    6e14:	f2 41 0f 11 5c 24 20 	movsd  %xmm3,0x20(%r12)
    6e1b:	48 83 c4 10          	add    $0x10,%rsp
    6e1f:	4c 89 e0             	mov    %r12,%rax
    6e22:	5b                   	pop    %rbx
    6e23:	5d                   	pop    %rbp
    6e24:	41 5c                	pop    %r12
    6e26:	c3                   	retq   
    6e27:	66 0f 1f 84 00 00 00 	nopw   0x0(%rax,%rax,1)
    6e2e:	00 00 
    6e30:	48 89 d8             	mov    %rbx,%rax
    6e33:	83 e3 01             	and    $0x1,%ebx
    6e36:	66 0f ef d2          	pxor   %xmm2,%xmm2
    6e3a:	48 d1 e8             	shr    %rax
    6e3d:	48 09 d8             	or     %rbx,%rax
    6e40:	f2 48 0f 2a d0       	cvtsi2sd %rax,%xmm2
    6e45:	f2 0f 58 d2          	addsd  %xmm2,%xmm2
    6e49:	eb 88                	jmp    6dd3 <pareto_alloc_pattern_fn+0x53>
    6e4b:	0f 1f 44 00 00       	nopl   0x0(%rax,%rax,1)

0000000000006e50 <get_pattern_from_name>:
    6e50:	f3 0f 1e fa          	endbr64 
    6e54:	48 85 ff             	test   %rdi,%rdi
    6e57:	74 67                	je     6ec0 <get_pattern_from_name+0x70>
    6e59:	44 0f b6 17          	movzbl (%rdi),%r10d
    6e5d:	4c 8d 0d c4 8c 00 00 	lea    0x8cc4(%rip),%r9        # fb28 <all_pattern+0x8>
    6e64:	4c 8d 05 75 96 00 00 	lea    0x9675(%rip),%r8        # 104e0 <linear_pattern>
    6e6b:	0f 1f 44 00 00       	nopl   0x0(%rax,%rax,1)
    6e70:	49 8b 70 20          	mov    0x20(%r8),%rsi
    6e74:	44 38 16             	cmp    %r10b,(%rsi)
    6e77:	75 37                	jne    6eb0 <get_pattern_from_name+0x60>
    6e79:	45 84 d2             	test   %r10b,%r10b
    6e7c:	74 27                	je     6ea5 <get_pattern_from_name+0x55>
    6e7e:	b8 01 00 00 00       	mov    $0x1,%eax
    6e83:	0f 1f 44 00 00       	nopl   0x0(%rax,%rax,1)
    6e88:	0f b6 14 06          	movzbl (%rsi,%rax,1),%edx
    6e8c:	3a 14 07             	cmp    (%rdi,%rax,1),%dl
    6e8f:	75 1f                	jne    6eb0 <get_pattern_from_name+0x60>
    6e91:	84 d2                	test   %dl,%dl
    6e93:	0f 94 c1             	sete   %cl
    6e96:	48 83 f8 0f          	cmp    $0xf,%rax
    6e9a:	0f 94 c2             	sete   %dl
    6e9d:	48 83 c0 01          	add    $0x1,%rax
    6ea1:	08 d1                	or     %dl,%cl
    6ea3:	74 e3                	je     6e88 <get_pattern_from_name+0x38>
    6ea5:	4c 89 c0             	mov    %r8,%rax
    6ea8:	c3                   	retq   
    6ea9:	0f 1f 80 00 00 00 00 	nopl   0x0(%rax)
    6eb0:	4d 8b 01             	mov    (%r9),%r8
    6eb3:	49 83 c1 08          	add    $0x8,%r9
    6eb7:	4d 85 c0             	test   %r8,%r8
    6eba:	75 b4                	jne    6e70 <get_pattern_from_name+0x20>
    6ebc:	4c 89 c0             	mov    %r8,%rax
    6ebf:	c3                   	retq   
    6ec0:	45 31 c0             	xor    %r8d,%r8d
    6ec3:	eb e0                	jmp    6ea5 <get_pattern_from_name+0x55>
    6ec5:	66 66 2e 0f 1f 84 00 	data16 nopw %cs:0x0(%rax,%rax,1)
    6ecc:	00 00 00 00 

0000000000006ed0 <get_offset_function>:
    6ed0:	f3 0f 1e fa          	endbr64 
    6ed4:	85 ff                	test   %edi,%edi
    6ed6:	48 8d 15 33 2a 00 00 	lea    0x2a33(%rip),%rdx        # 9910 <offset_constant>
    6edd:	48 8d 05 fc 29 00 00 	lea    0x29fc(%rip),%rax        # 98e0 <offset_random>
    6ee4:	48 0f 49 c2          	cmovns %rdx,%rax
    6ee8:	c3                   	retq   
    6ee9:	0f 1f 80 00 00 00 00 	nopl   0x0(%rax)

0000000000006ef0 <cpuid_cpu_model>:
    6ef0:	8b 35 8a a9 00 00    	mov    0xa98a(%rip),%esi        # 11880 <_cpuid>
    6ef6:	53                   	push   %rbx
    6ef7:	89 f0                	mov    %esi,%eax
    6ef9:	83 e0 01             	and    $0x1,%eax
    6efc:	75 25                	jne    6f23 <cpuid_cpu_model+0x33>
    6efe:	89 c1                	mov    %eax,%ecx
    6f00:	0f a2                	cpuid  
    6f02:	83 ce 01             	or     $0x1,%esi
    6f05:	89 05 7d a9 00 00    	mov    %eax,0xa97d(%rip)        # 11888 <_cpuid+0x8>
    6f0b:	89 1d 7b a9 00 00    	mov    %ebx,0xa97b(%rip)        # 1188c <_cpuid+0xc>
    6f11:	89 0d 79 a9 00 00    	mov    %ecx,0xa979(%rip)        # 11890 <_cpuid+0x10>
    6f17:	89 15 77 a9 00 00    	mov    %edx,0xa977(%rip)        # 11894 <_cpuid+0x14>
    6f1d:	89 35 5d a9 00 00    	mov    %esi,0xa95d(%rip)        # 11880 <_cpuid>
    6f23:	8b 15 5f a9 00 00    	mov    0xa95f(%rip),%edx        # 11888 <_cpuid+0x8>
    6f29:	b8 ff ff ff ff       	mov    $0xffffffff,%eax
    6f2e:	85 d2                	test   %edx,%edx
    6f30:	74 5d                	je     6f8f <cpuid_cpu_model+0x9f>
    6f32:	8b 35 48 a9 00 00    	mov    0xa948(%rip),%esi        # 11880 <_cpuid>
    6f38:	89 f1                	mov    %esi,%ecx
    6f3a:	83 e1 02             	and    $0x2,%ecx
    6f3d:	75 28                	jne    6f67 <cpuid_cpu_model+0x77>
    6f3f:	b8 01 00 00 00       	mov    $0x1,%eax
    6f44:	0f a2                	cpuid  
    6f46:	83 ce 02             	or     $0x2,%esi
    6f49:	89 05 49 a9 00 00    	mov    %eax,0xa949(%rip)        # 11898 <_cpuid+0x18>
    6f4f:	89 1d 47 a9 00 00    	mov    %ebx,0xa947(%rip)        # 1189c <_cpuid+0x1c>
    6f55:	89 0d 45 a9 00 00    	mov    %ecx,0xa945(%rip)        # 118a0 <_cpuid+0x20>
    6f5b:	89 15 43 a9 00 00    	mov    %edx,0xa943(%rip)        # 118a4 <_cpuid+0x24>
    6f61:	89 35 19 a9 00 00    	mov    %esi,0xa919(%rip)        # 11880 <_cpuid>
    6f67:	8b 05 2b a9 00 00    	mov    0xa92b(%rip),%eax        # 11898 <_cpuid+0x18>
    6f6d:	0f b6 cc             	movzbl %ah,%ecx
    6f70:	89 c6                	mov    %eax,%esi
    6f72:	c1 ee 08             	shr    $0x8,%esi
    6f75:	83 e1 0f             	and    $0xf,%ecx
    6f78:	83 e6 0f             	and    $0xf,%esi
    6f7b:	80 f9 0f             	cmp    $0xf,%cl
    6f7e:	74 18                	je     6f98 <cpuid_cpu_model+0xa8>
    6f80:	89 c2                	mov    %eax,%edx
    6f82:	c0 ea 04             	shr    $0x4,%dl
    6f85:	80 f9 06             	cmp    $0x6,%cl
    6f88:	74 1d                	je     6fa7 <cpuid_cpu_model+0xb7>
    6f8a:	89 37                	mov    %esi,(%rdi)
    6f8c:	0f b6 c2             	movzbl %dl,%eax
    6f8f:	5b                   	pop    %rbx
    6f90:	c3                   	retq   
    6f91:	0f 1f 80 00 00 00 00 	nopl   0x0(%rax)
    6f98:	89 c2                	mov    %eax,%edx
    6f9a:	c1 ea 14             	shr    $0x14,%edx
    6f9d:	0f b6 d2             	movzbl %dl,%edx
    6fa0:	01 d6                	add    %edx,%esi
    6fa2:	89 c2                	mov    %eax,%edx
    6fa4:	c0 ea 04             	shr    $0x4,%dl
    6fa7:	c1 e8 0c             	shr    $0xc,%eax
    6faa:	89 37                	mov    %esi,(%rdi)
    6fac:	25 f0 00 00 00       	and    $0xf0,%eax
    6fb1:	89 c1                	mov    %eax,%ecx
    6fb3:	0f b6 c2             	movzbl %dl,%eax
    6fb6:	01 c8                	add    %ecx,%eax
    6fb8:	eb d5                	jmp    6f8f <cpuid_cpu_model+0x9f>
    6fba:	66 0f 1f 44 00 00    	nopw   0x0(%rax,%rax,1)

0000000000006fc0 <measure_rdtsc_frequency>:
    6fc0:	41 54                	push   %r12
    6fc2:	55                   	push   %rbp
    6fc3:	53                   	push   %rbx
    6fc4:	0f 31                	rdtsc  
    6fc6:	bf 00 00 02 00       	mov    $0x20000,%edi
    6fcb:	48 89 d5             	mov    %rdx,%rbp
    6fce:	49 89 c4             	mov    %rax,%r12
    6fd1:	e8 7a c7 ff ff       	callq  3750 <usleep@plt>
    6fd6:	89 c1                	mov    %eax,%ecx
    6fd8:	0f 31                	rdtsc  
    6fda:	85 c9                	test   %ecx,%ecx
    6fdc:	75 6a                	jne    7048 <measure_rdtsc_frequency+0x88>
    6fde:	48 c1 e2 20          	shl    $0x20,%rdx
    6fe2:	48 89 d3             	mov    %rdx,%rbx
    6fe5:	48 89 ea             	mov    %rbp,%rdx
    6fe8:	48 c1 e2 20          	shl    $0x20,%rdx
    6fec:	48 09 c3             	or     %rax,%rbx
    6fef:	48 89 d0             	mov    %rdx,%rax
    6ff2:	4c 09 e0             	or     %r12,%rax
    6ff5:	48 29 c3             	sub    %rax,%rbx
    6ff8:	0f 31                	rdtsc  
    6ffa:	48 c1 e2 20          	shl    $0x20,%rdx
    6ffe:	bf 00 00 04 00       	mov    $0x40000,%edi
    7003:	48 09 c2             	or     %rax,%rdx
    7006:	48 89 d5             	mov    %rdx,%rbp
    7009:	e8 42 c7 ff ff       	callq  3750 <usleep@plt>
    700e:	89 c1                	mov    %eax,%ecx
    7010:	0f 31                	rdtsc  
    7012:	48 c1 e2 20          	shl    $0x20,%rdx
    7016:	48 09 c2             	or     %rax,%rdx
    7019:	85 c9                	test   %ecx,%ecx
    701b:	75 2b                	jne    7048 <measure_rdtsc_frequency+0x88>
    701d:	48 8d 44 5d 00       	lea    0x0(%rbp,%rbx,2),%rax
    7022:	48 29 d0             	sub    %rdx,%rax
    7025:	48 ba ff ff ff ff ff 	movabs $0x1ffffffffffffff,%rdx
    702c:	ff ff 01 
    702f:	48 21 d0             	and    %rdx,%rax
    7032:	48 29 c3             	sub    %rax,%rbx
    7035:	48 69 c3 e8 03 00 00 	imul   $0x3e8,%rbx,%rax
    703c:	5b                   	pop    %rbx
    703d:	5d                   	pop    %rbp
    703e:	41 5c                	pop    %r12
    7040:	48 c1 e8 11          	shr    $0x11,%rax
    7044:	c3                   	retq   
    7045:	0f 1f 00             	nopl   (%rax)
    7048:	48 8d 3d e9 40 00 00 	lea    0x40e9(%rip),%rdi        # b138 <args_doc_str.10218+0x160>
    704f:	e8 3c c7 ff ff       	callq  3790 <puts@plt>
    7054:	5b                   	pop    %rbx
    7055:	31 c0                	xor    %eax,%eax
    7057:	5d                   	pop    %rbp
    7058:	41 5c                	pop    %r12
    705a:	c3                   	retq   
    705b:	0f 1f 44 00 00       	nopl   0x0(%rax,%rax,1)

0000000000007060 <validate_freq>:
    7060:	53                   	push   %rbx
    7061:	89 fb                	mov    %edi,%ebx
    7063:	e8 58 ff ff ff       	callq  6fc0 <measure_rdtsc_frequency>
    7068:	45 31 c0             	xor    %r8d,%r8d
    706b:	85 c0                	test   %eax,%eax
    706d:	74 25                	je     7094 <validate_freq+0x34>
    706f:	8d bb 9f 86 01 00    	lea    0x1869f(%rbx),%edi
    7075:	41 b8 01 00 00 00    	mov    $0x1,%r8d
    707b:	29 c7                	sub    %eax,%edi
    707d:	81 ff 3e 0d 03 00    	cmp    $0x30d3e,%edi
    7083:	76 0f                	jbe    7094 <validate_freq+0x34>
    7085:	48 8d 3d e4 40 00 00 	lea    0x40e4(%rip),%rdi        # b170 <args_doc_str.10218+0x198>
    708c:	e8 ff c6 ff ff       	callq  3790 <puts@plt>
    7091:	45 31 c0             	xor    %r8d,%r8d
    7094:	44 89 c0             	mov    %r8d,%eax
    7097:	5b                   	pop    %rbx
    7098:	c3                   	retq   
    7099:	0f 1f 80 00 00 00 00 	nopl   0x0(%rax)

00000000000070a0 <is_rdtscp_available>:
    70a0:	f3 0f 1e fa          	endbr64 
    70a4:	8b 35 da a7 00 00    	mov    0xa7da(%rip),%esi        # 11884 <_cpuid+0x4>
    70aa:	53                   	push   %rbx
    70ab:	89 f1                	mov    %esi,%ecx
    70ad:	83 e1 01             	and    $0x1,%ecx
    70b0:	75 28                	jne    70da <is_rdtscp_available+0x3a>
    70b2:	b8 00 00 00 80       	mov    $0x80000000,%eax
    70b7:	0f a2                	cpuid  
    70b9:	83 ce 01             	or     $0x1,%esi
    70bc:	89 05 c6 a9 00 00    	mov    %eax,0xa9c6(%rip)        # 11a88 <_cpuid+0x208>
    70c2:	89 1d c4 a9 00 00    	mov    %ebx,0xa9c4(%rip)        # 11a8c <_cpuid+0x20c>
    70c8:	89 0d c2 a9 00 00    	mov    %ecx,0xa9c2(%rip)        # 11a90 <_cpuid+0x210>
    70ce:	89 15 c0 a9 00 00    	mov    %edx,0xa9c0(%rip)        # 11a94 <_cpuid+0x214>
    70d4:	89 35 aa a7 00 00    	mov    %esi,0xa7aa(%rip)        # 11884 <_cpuid+0x4>
    70da:	31 c0                	xor    %eax,%eax
    70dc:	81 3d a2 a9 00 00 00 	cmpl   $0x80000000,0xa9a2(%rip)        # 11a88 <_cpuid+0x208>
    70e3:	00 00 80 
    70e6:	76 41                	jbe    7129 <is_rdtscp_available+0x89>
    70e8:	8b 35 96 a7 00 00    	mov    0xa796(%rip),%esi        # 11884 <_cpuid+0x4>
    70ee:	89 f1                	mov    %esi,%ecx
    70f0:	83 e1 02             	and    $0x2,%ecx
    70f3:	75 28                	jne    711d <is_rdtscp_available+0x7d>
    70f5:	b8 01 00 00 80       	mov    $0x80000001,%eax
    70fa:	0f a2                	cpuid  
    70fc:	83 ce 02             	or     $0x2,%esi
    70ff:	89 05 93 a9 00 00    	mov    %eax,0xa993(%rip)        # 11a98 <_cpuid+0x218>
    7105:	89 1d 91 a9 00 00    	mov    %ebx,0xa991(%rip)        # 11a9c <_cpuid+0x21c>
    710b:	89 0d 8f a9 00 00    	mov    %ecx,0xa98f(%rip)        # 11aa0 <_cpuid+0x220>
    7111:	89 15 8d a9 00 00    	mov    %edx,0xa98d(%rip)        # 11aa4 <_cpuid+0x224>
    7117:	89 35 67 a7 00 00    	mov    %esi,0xa767(%rip)        # 11884 <_cpuid+0x4>
    711d:	8b 05 81 a9 00 00    	mov    0xa981(%rip),%eax        # 11aa4 <_cpuid+0x224>
    7123:	c1 e8 1b             	shr    $0x1b,%eax
    7126:	83 e0 01             	and    $0x1,%eax
    7129:	5b                   	pop    %rbx
    712a:	c3                   	retq   
    712b:	0f 1f 44 00 00       	nopl   0x0(%rax,%rax,1)

0000000000007130 <is_tsc_invariant>:
    7130:	f3 0f 1e fa          	endbr64 
    7134:	8b 35 4a a7 00 00    	mov    0xa74a(%rip),%esi        # 11884 <_cpuid+0x4>
    713a:	53                   	push   %rbx
    713b:	89 f1                	mov    %esi,%ecx
    713d:	83 e1 01             	and    $0x1,%ecx
    7140:	75 28                	jne    716a <is_tsc_invariant+0x3a>
    7142:	b8 00 00 00 80       	mov    $0x80000000,%eax
    7147:	0f a2                	cpuid  
    7149:	83 ce 01             	or     $0x1,%esi
    714c:	89 05 36 a9 00 00    	mov    %eax,0xa936(%rip)        # 11a88 <_cpuid+0x208>
    7152:	89 1d 34 a9 00 00    	mov    %ebx,0xa934(%rip)        # 11a8c <_cpuid+0x20c>
    7158:	89 0d 32 a9 00 00    	mov    %ecx,0xa932(%rip)        # 11a90 <_cpuid+0x210>
    715e:	89 15 30 a9 00 00    	mov    %edx,0xa930(%rip)        # 11a94 <_cpuid+0x214>
    7164:	89 35 1a a7 00 00    	mov    %esi,0xa71a(%rip)        # 11884 <_cpuid+0x4>
    716a:	31 c0                	xor    %eax,%eax
    716c:	81 3d 12 a9 00 00 06 	cmpl   $0x80000006,0xa912(%rip)        # 11a88 <_cpuid+0x208>
    7173:	00 00 80 
    7176:	76 45                	jbe    71bd <is_tsc_invariant+0x8d>
    7178:	8b 35 06 a7 00 00    	mov    0xa706(%rip),%esi        # 11884 <_cpuid+0x4>
    717e:	89 f1                	mov    %esi,%ecx
    7180:	81 e1 80 00 00 00    	and    $0x80,%ecx
    7186:	75 29                	jne    71b1 <is_tsc_invariant+0x81>
    7188:	b8 07 00 00 80       	mov    $0x80000007,%eax
    718d:	0f a2                	cpuid  
    718f:	40 80 ce 80          	or     $0x80,%sil
    7193:	89 05 5f a9 00 00    	mov    %eax,0xa95f(%rip)        # 11af8 <_cpuid+0x278>
    7199:	89 1d 5d a9 00 00    	mov    %ebx,0xa95d(%rip)        # 11afc <_cpuid+0x27c>
    719f:	89 0d 5b a9 00 00    	mov    %ecx,0xa95b(%rip)        # 11b00 <_cpuid+0x280>
    71a5:	89 15 59 a9 00 00    	mov    %edx,0xa959(%rip)        # 11b04 <_cpuid+0x284>
    71ab:	89 35 d3 a6 00 00    	mov    %esi,0xa6d3(%rip)        # 11884 <_cpuid+0x4>
    71b1:	8b 05 4d a9 00 00    	mov    0xa94d(%rip),%eax        # 11b04 <_cpuid+0x284>
    71b7:	c1 e8 08             	shr    $0x8,%eax
    71ba:	83 e0 01             	and    $0x1,%eax
    71bd:	5b                   	pop    %rbx
    71be:	c3                   	retq   
    71bf:	90                   	nop

00000000000071c0 <__cpuid_obtain_brand_string>:
    71c0:	f3 0f 1e fa          	endbr64 
    71c4:	8b 35 ba a6 00 00    	mov    0xa6ba(%rip),%esi        # 11884 <_cpuid+0x4>
    71ca:	53                   	push   %rbx
    71cb:	89 f1                	mov    %esi,%ecx
    71cd:	83 e1 01             	and    $0x1,%ecx
    71d0:	75 28                	jne    71fa <__cpuid_obtain_brand_string+0x3a>
    71d2:	b8 00 00 00 80       	mov    $0x80000000,%eax
    71d7:	0f a2                	cpuid  
    71d9:	83 ce 01             	or     $0x1,%esi
    71dc:	89 05 a6 a8 00 00    	mov    %eax,0xa8a6(%rip)        # 11a88 <_cpuid+0x208>
    71e2:	89 1d a4 a8 00 00    	mov    %ebx,0xa8a4(%rip)        # 11a8c <_cpuid+0x20c>
    71e8:	89 0d a2 a8 00 00    	mov    %ecx,0xa8a2(%rip)        # 11a90 <_cpuid+0x210>
    71ee:	89 15 a0 a8 00 00    	mov    %edx,0xa8a0(%rip)        # 11a94 <_cpuid+0x214>
    71f4:	89 35 8a a6 00 00    	mov    %esi,0xa68a(%rip)        # 11884 <_cpuid+0x4>
    71fa:	81 3d 84 a8 00 00 03 	cmpl   $0x80000003,0xa884(%rip)        # 11a88 <_cpuid+0x208>
    7201:	00 00 80 
    7204:	0f 86 e6 00 00 00    	jbe    72f0 <__cpuid_obtain_brand_string+0x130>
    720a:	8b 35 74 a6 00 00    	mov    0xa674(%rip),%esi        # 11884 <_cpuid+0x4>
    7210:	89 f1                	mov    %esi,%ecx
    7212:	83 e1 04             	and    $0x4,%ecx
    7215:	75 28                	jne    723f <__cpuid_obtain_brand_string+0x7f>
    7217:	b8 02 00 00 80       	mov    $0x80000002,%eax
    721c:	0f a2                	cpuid  
    721e:	83 ce 04             	or     $0x4,%esi
    7221:	89 05 81 a8 00 00    	mov    %eax,0xa881(%rip)        # 11aa8 <_cpuid+0x228>
    7227:	89 1d 7f a8 00 00    	mov    %ebx,0xa87f(%rip)        # 11aac <_cpuid+0x22c>
    722d:	89 0d 7d a8 00 00    	mov    %ecx,0xa87d(%rip)        # 11ab0 <_cpuid+0x230>
    7233:	89 15 7b a8 00 00    	mov    %edx,0xa87b(%rip)        # 11ab4 <_cpuid+0x234>
    7239:	89 35 45 a6 00 00    	mov    %esi,0xa645(%rip)        # 11884 <_cpuid+0x4>
    723f:	89 f1                	mov    %esi,%ecx
    7241:	83 e1 08             	and    $0x8,%ecx
    7244:	75 2e                	jne    7274 <__cpuid_obtain_brand_string+0xb4>
    7246:	b8 03 00 00 80       	mov    $0x80000003,%eax
    724b:	0f a2                	cpuid  
    724d:	8b 35 31 a6 00 00    	mov    0xa631(%rip),%esi        # 11884 <_cpuid+0x4>
    7253:	89 05 5f a8 00 00    	mov    %eax,0xa85f(%rip)        # 11ab8 <_cpuid+0x238>
    7259:	89 1d 5d a8 00 00    	mov    %ebx,0xa85d(%rip)        # 11abc <_cpuid+0x23c>
    725f:	83 ce 08             	or     $0x8,%esi
    7262:	89 0d 58 a8 00 00    	mov    %ecx,0xa858(%rip)        # 11ac0 <_cpuid+0x240>
    7268:	89 15 56 a8 00 00    	mov    %edx,0xa856(%rip)        # 11ac4 <_cpuid+0x244>
    726e:	89 35 10 a6 00 00    	mov    %esi,0xa610(%rip)        # 11884 <_cpuid+0x4>
    7274:	83 e6 10             	and    $0x10,%esi
    7277:	74 47                	je     72c0 <__cpuid_obtain_brand_string+0x100>
    7279:	0f b6 0d 28 a8 00 00 	movzbl 0xa828(%rip),%ecx        # 11aa8 <_cpuid+0x228>
    7280:	48 8d 15 21 a8 00 00 	lea    0xa821(%rip),%rdx        # 11aa8 <_cpuid+0x228>
    7287:	80 f9 20             	cmp    $0x20,%cl
    728a:	75 11                	jne    729d <__cpuid_obtain_brand_string+0xdd>
    728c:	0f 1f 40 00          	nopl   0x0(%rax)
    7290:	0f b6 4a 01          	movzbl 0x1(%rdx),%ecx
    7294:	48 83 c2 01          	add    $0x1,%rdx
    7298:	80 f9 20             	cmp    $0x20,%cl
    729b:	74 f3                	je     7290 <__cpuid_obtain_brand_string+0xd0>
    729d:	48 89 f8             	mov    %rdi,%rax
    72a0:	eb 09                	jmp    72ab <__cpuid_obtain_brand_string+0xeb>
    72a2:	66 0f 1f 44 00 00    	nopw   0x0(%rax,%rax,1)
    72a8:	0f b6 0a             	movzbl (%rdx),%ecx
    72ab:	48 83 c0 01          	add    $0x1,%rax
    72af:	48 83 c2 01          	add    $0x1,%rdx
    72b3:	88 48 ff             	mov    %cl,-0x1(%rax)
    72b6:	84 c9                	test   %cl,%cl
    72b8:	75 ee                	jne    72a8 <__cpuid_obtain_brand_string+0xe8>
    72ba:	29 f8                	sub    %edi,%eax
    72bc:	5b                   	pop    %rbx
    72bd:	c3                   	retq   
    72be:	66 90                	xchg   %ax,%ax
    72c0:	b8 04 00 00 80       	mov    $0x80000004,%eax
    72c5:	89 f1                	mov    %esi,%ecx
    72c7:	0f a2                	cpuid  
    72c9:	83 0d b4 a5 00 00 10 	orl    $0x10,0xa5b4(%rip)        # 11884 <_cpuid+0x4>
    72d0:	89 05 f2 a7 00 00    	mov    %eax,0xa7f2(%rip)        # 11ac8 <_cpuid+0x248>
    72d6:	89 1d f0 a7 00 00    	mov    %ebx,0xa7f0(%rip)        # 11acc <_cpuid+0x24c>
    72dc:	89 0d ee a7 00 00    	mov    %ecx,0xa7ee(%rip)        # 11ad0 <_cpuid+0x250>
    72e2:	89 15 ec a7 00 00    	mov    %edx,0xa7ec(%rip)        # 11ad4 <_cpuid+0x254>
    72e8:	eb 8f                	jmp    7279 <__cpuid_obtain_brand_string+0xb9>
    72ea:	66 0f 1f 44 00 00    	nopw   0x0(%rax,%rax,1)
    72f0:	31 c0                	xor    %eax,%eax
    72f2:	c6 07 00             	movb   $0x0,(%rdi)
    72f5:	5b                   	pop    %rbx
    72f6:	c3                   	retq   
    72f7:	66 0f 1f 84 00 00 00 	nopw   0x0(%rax,%rax,1)
    72fe:	00 00 

0000000000007300 <get_tlb_info>:
    7300:	f3 0f 1e fa          	endbr64 
    7304:	48 63 ff             	movslq %edi,%rdi
    7307:	48 8d 05 62 ad 00 00 	lea    0xad62(%rip),%rax        # 12070 <tlb_info_buf>
    730e:	0f b6 04 38          	movzbl (%rax,%rdi,1),%eax
    7312:	c3                   	retq   
    7313:	66 66 2e 0f 1f 84 00 	data16 nopw %cs:0x0(%rax,%rax,1)
    731a:	00 00 00 00 
    731e:	66 90                	xchg   %ax,%ax

0000000000007320 <get_cache_type>:
    7320:	f3 0f 1e fa          	endbr64 
    7324:	48 63 c7             	movslq %edi,%rax
    7327:	48 8d 0d 92 ad 00 00 	lea    0xad92(%rip),%rcx        # 120c0 <cash>
    732e:	48 c1 e0 04          	shl    $0x4,%rax
    7332:	8b 4c 01 0c          	mov    0xc(%rcx,%rax,1),%ecx
    7336:	48 8d 05 af 50 00 00 	lea    0x50af(%rip),%rax        # c3ec <args_doc_str.10218+0x1414>
    733d:	83 f9 02             	cmp    $0x2,%ecx
    7340:	74 3e                	je     7380 <get_cache_type+0x60>
    7342:	48 8d 05 ab 50 00 00 	lea    0x50ab(%rip),%rax        # c3f4 <args_doc_str.10218+0x141c>
    7349:	83 f9 03             	cmp    $0x3,%ecx
    734c:	74 32                	je     7380 <get_cache_type+0x60>
    734e:	48 8d 05 9e 50 00 00 	lea    0x509e(%rip),%rax        # c3f3 <args_doc_str.10218+0x141b>
    7355:	83 f9 01             	cmp    $0x1,%ecx
    7358:	74 26                	je     7380 <get_cache_type+0x60>
    735a:	48 83 ec 08          	sub    $0x8,%rsp
    735e:	89 fa                	mov    %edi,%edx
    7360:	48 8d 35 93 50 00 00 	lea    0x5093(%rip),%rsi        # c3fa <args_doc_str.10218+0x1422>
    7367:	31 c0                	xor    %eax,%eax
    7369:	bf 01 00 00 00       	mov    $0x1,%edi
    736e:	e8 bd c0 ff ff       	callq  3430 <__printf_chk@plt>
    7373:	48 8d 05 67 50 00 00 	lea    0x5067(%rip),%rax        # c3e1 <args_doc_str.10218+0x1409>
    737a:	48 83 c4 08          	add    $0x8,%rsp
    737e:	c3                   	retq   
    737f:	90                   	nop
    7380:	c3                   	retq   
    7381:	66 66 2e 0f 1f 84 00 	data16 nopw %cs:0x0(%rax,%rax,1)
    7388:	00 00 00 00 
    738c:	0f 1f 40 00          	nopl   0x0(%rax)

0000000000007390 <get_cache_info>:
    7390:	f3 0f 1e fa          	endbr64 
    7394:	83 fe 05             	cmp    $0x5,%esi
    7397:	0f 87 98 00 00 00    	ja     7435 <get_cache_info+0xa5>
